
correlate:     file format elf32-littlearm


Disassembly of section .interp:

00008134 <.interp>:
    8134:	62696c2f 	rsbvs	r6, r9, #12032	; 0x2f00
    8138:	2d646c2f 	stclcs	12, cr6, [r4, #-188]!	; 0xffffff44
    813c:	756e696c 	strbvc	r6, [lr, #-2412]!	; 0x96c
    8140:	72612d78 	rsbvc	r2, r1, #120, 26	; 0x1e00
    8144:	2e66686d 	cdpcs	8, 6, cr6, cr6, cr13, {3}
    8148:	332e6f73 	teqcc	lr, #460	; 0x1cc
	...

Disassembly of section .note.ABI-tag:

00008150 <.note.ABI-tag>:
    8150:	00000004 	andeq	r0, r0, r4
    8154:	00000010 	andeq	r0, r0, r0, lsl r0
    8158:	00000001 	andeq	r0, r0, r1
    815c:	00554e47 	subseq	r4, r5, r7, asr #28
    8160:	00000000 	andeq	r0, r0, r0
    8164:	00000003 	andeq	r0, r0, r3
    8168:	00000001 	andeq	r0, r0, r1
    816c:	00000001 	andeq	r0, r0, r1

Disassembly of section .note.gnu.build-id:

00008170 <.note.gnu.build-id>:
    8170:	00000004 	andeq	r0, r0, r4
    8174:	00000014 	andeq	r0, r0, r4, lsl r0
    8178:	00000003 	andeq	r0, r0, r3
    817c:	00554e47 	subseq	r4, r5, r7, asr #28
    8180:	db31822b 	blle	c68a34 <__bss_end__+0xc566f0>
    8184:	5b38a57d 	blpl	e31780 <__bss_end__+0xe1f43c>
    8188:	ee043c92 	mcr	12, 0, r3, cr4, cr2, {4}
    818c:	cccb2587 	cfstr64gt	mvdx2, [fp], {135}	; 0x87
    8190:	c432696f 	ldrtgt	r6, [r2], #-2415	; 0x96f

Disassembly of section .hash:

00008194 <.hash>:
    8194:	00000011 	andeq	r0, r0, r1, lsl r0
    8198:	0000001a 	andeq	r0, r0, sl, lsl r0
    819c:	00000000 	andeq	r0, r0, r0
    81a0:	0000000d 	andeq	r0, r0, sp
    81a4:	00000000 	andeq	r0, r0, r0
    81a8:	00000018 	andeq	r0, r0, r8, lsl r0
    81ac:	00000008 	andeq	r0, r0, r8
    81b0:	00000013 	andeq	r0, r0, r3, lsl r0
    81b4:	00000007 	andeq	r0, r0, r7
    81b8:	00000011 	andeq	r0, r0, r1, lsl r0
    81bc:	00000006 	andeq	r0, r0, r6
    81c0:	00000015 	andeq	r0, r0, r5, lsl r0
    81c4:	00000019 	andeq	r0, r0, r9, lsl r0
    81c8:	00000000 	andeq	r0, r0, r0
    81cc:	00000002 	andeq	r0, r0, r2
    81d0:	00000000 	andeq	r0, r0, r0
    81d4:	00000010 	andeq	r0, r0, r0, lsl r0
    81d8:	0000000e 	andeq	r0, r0, lr
	...
    81f0:	00000003 	andeq	r0, r0, r3
	...
    81fc:	00000001 	andeq	r0, r0, r1
    8200:	00000000 	andeq	r0, r0, r0
    8204:	00000005 	andeq	r0, r0, r5
    8208:	00000000 	andeq	r0, r0, r0
    820c:	00000004 	andeq	r0, r0, r4
	...
    8218:	0000000a 	andeq	r0, r0, sl
	...
    8224:	00000009 	andeq	r0, r0, r9
    8228:	0000000f 	andeq	r0, r0, pc
    822c:	00000000 	andeq	r0, r0, r0
    8230:	00000012 	andeq	r0, r0, r2, lsl r0
    8234:	0000000c 	andeq	r0, r0, ip
    8238:	00000014 	andeq	r0, r0, r4, lsl r0
    823c:	0000000b 	andeq	r0, r0, fp
    8240:	00000016 	andeq	r0, r0, r6, lsl r0
    8244:	00000017 	andeq	r0, r0, r7, lsl r0

Disassembly of section .dynsym:

00008248 <.dynsym>:
	...
    8258:	000000b5 	strheq	r0, [r0], -r5
    825c:	00008628 	andeq	r8, r0, r8, lsr #12
    8260:	00000000 	andeq	r0, r0, r0
    8264:	00000012 	andeq	r0, r0, r2, lsl r0
    8268:	0000000b 	andeq	r0, r0, fp
	...
    8274:	00000020 	andeq	r0, r0, r0, lsr #32
    8278:	000000c3 	andeq	r0, r0, r3, asr #1
    827c:	00008634 	andeq	r8, r0, r4, lsr r6
    8280:	00000000 	andeq	r0, r0, r0
    8284:	00000012 	andeq	r0, r0, r2, lsl r0
    8288:	0000007e 	andeq	r0, r0, lr, ror r0
    828c:	00008640 	andeq	r8, r0, r0, asr #12
    8290:	00000000 	andeq	r0, r0, r0
    8294:	00000012 	andeq	r0, r0, r2, lsl r0
    8298:	000000a2 	andeq	r0, r0, r2, lsr #1
    829c:	0000864c 	andeq	r8, r0, ip, asr #12
    82a0:	00000000 	andeq	r0, r0, r0
    82a4:	00000012 	andeq	r0, r0, r2, lsl r0
    82a8:	000000a7 	andeq	r0, r0, r7, lsr #1
    82ac:	00008658 	andeq	r8, r0, r8, asr r6
    82b0:	00000000 	andeq	r0, r0, r0
    82b4:	00000012 	andeq	r0, r0, r2, lsl r0
    82b8:	00000068 	andeq	r0, r0, r8, rrx
    82bc:	00008664 	andeq	r8, r0, r4, ror #12
    82c0:	00000000 	andeq	r0, r0, r0
    82c4:	00000012 	andeq	r0, r0, r2, lsl r0
    82c8:	00000084 	andeq	r0, r0, r4, lsl #1
    82cc:	00008670 	andeq	r8, r0, r0, ror r6
    82d0:	00000000 	andeq	r0, r0, r0
    82d4:	00000012 	andeq	r0, r0, r2, lsl r0
    82d8:	000000d8 	ldrdeq	r0, [r0], -r8
    82dc:	0000867c 	andeq	r8, r0, ip, ror r6
    82e0:	00000000 	andeq	r0, r0, r0
    82e4:	00000012 	andeq	r0, r0, r2, lsl r0
    82e8:	00000027 	andeq	r0, r0, r7, lsr #32
	...
    82f4:	00000020 	andeq	r0, r0, r0, lsr #32
    82f8:	0000007f 	andeq	r0, r0, pc, ror r0
    82fc:	00008694 	muleq	r0, r4, r6
    8300:	00000000 	andeq	r0, r0, r0
    8304:	00000012 	andeq	r0, r0, r2, lsl r0
    8308:	000000d0 	ldrdeq	r0, [r0], -r0	; <UNPREDICTABLE>
    830c:	000086a0 	andeq	r8, r0, r0, lsr #13
    8310:	00000000 	andeq	r0, r0, r0
    8314:	00000012 	andeq	r0, r0, r2, lsl r0
    8318:	00000064 	andeq	r0, r0, r4, rrx
    831c:	000086ac 	andeq	r8, r0, ip, lsr #13
    8320:	00000000 	andeq	r0, r0, r0
    8324:	00000012 	andeq	r0, r0, r2, lsl r0
    8328:	0000009d 	muleq	r0, sp, r0
    832c:	000086b8 			; <UNDEFINED> instruction: 0x000086b8
    8330:	00000000 	andeq	r0, r0, r0
    8334:	00000012 	andeq	r0, r0, r2, lsl r0
    8338:	00000078 	andeq	r0, r0, r8, ror r0
    833c:	000086c4 	andeq	r8, r0, r4, asr #13
    8340:	00000000 	andeq	r0, r0, r0
    8344:	00000012 	andeq	r0, r0, r2, lsl r0
    8348:	000000c2 	andeq	r0, r0, r2, asr #1
    834c:	000086d0 	ldrdeq	r8, [r0], -r0
    8350:	00000000 	andeq	r0, r0, r0
    8354:	00000012 	andeq	r0, r0, r2, lsl r0
    8358:	00000079 	andeq	r0, r0, r9, ror r0
    835c:	000086dc 	ldrdeq	r8, [r0], -ip
    8360:	00000000 	andeq	r0, r0, r0
    8364:	00000012 	andeq	r0, r0, r2, lsl r0
    8368:	000000ae 	andeq	r0, r0, lr, lsr #1
    836c:	000086ec 	andeq	r8, r0, ip, ror #13
    8370:	00000000 	andeq	r0, r0, r0
    8374:	00000012 	andeq	r0, r0, r2, lsl r0
    8378:	000000bb 	strheq	r0, [r0], -fp
    837c:	000086f8 	strdeq	r8, [r0], -r8	; <UNPREDICTABLE>
    8380:	00000000 	andeq	r0, r0, r0
    8384:	00000012 	andeq	r0, r0, r2, lsl r0
    8388:	00000036 	andeq	r0, r0, r6, lsr r0
	...
    8394:	00000020 	andeq	r0, r0, r0, lsr #32
    8398:	000000ca 	andeq	r0, r0, sl, asr #1
    839c:	00008704 	andeq	r8, r0, r4, lsl #14
    83a0:	00000000 	andeq	r0, r0, r0
    83a4:	00000012 	andeq	r0, r0, r2, lsl r0
    83a8:	0000004a 	andeq	r0, r0, sl, asr #32
	...
    83b4:	00000020 	andeq	r0, r0, r0, lsr #32
    83b8:	00000089 	andeq	r0, r0, r9, lsl #1
    83bc:	00008710 	andeq	r8, r0, r0, lsl r7
    83c0:	00000000 	andeq	r0, r0, r0
    83c4:	00000012 	andeq	r0, r0, r2, lsl r0
    83c8:	000000af 	andeq	r0, r0, pc, lsr #1
    83cc:	00008720 	andeq	r8, r0, r0, lsr #14
    83d0:	00000000 	andeq	r0, r0, r0
    83d4:	00000012 	andeq	r0, r0, r2, lsl r0
    83d8:	0000008f 	andeq	r0, r0, pc, lsl #1
    83dc:	0000872c 	andeq	r8, r0, ip, lsr #14
    83e0:	00000000 	andeq	r0, r0, r0
    83e4:	00000012 	andeq	r0, r0, r2, lsl r0

Disassembly of section .dynstr:

000083e8 <.dynstr>:
    83e8:	62696c00 	rsbvs	r6, r9, #0, 24
    83ec:	6f732e6d 	svcvs	0x00732e6d
    83f0:	5f00362e 	svcpl	0x0000362e
    83f4:	5f4d5449 	svcpl	0x004d5449
    83f8:	65726564 	ldrbvs	r6, [r2, #-1380]!	; 0x564
    83fc:	74736967 	ldrbtvc	r6, [r3], #-2407	; 0x967
    8400:	4d547265 	lfmmi	f7, 2, [r4, #-404]	; 0xfffffe6c
    8404:	6e6f6c43 	cdpvs	12, 6, cr6, cr15, cr3, {2}
    8408:	62615465 	rsbvs	r5, r1, #1694498816	; 0x65000000
    840c:	5f00656c 	svcpl	0x0000656c
    8410:	6f6d675f 	svcvs	0x006d675f
    8414:	74735f6e 	ldrbtvc	r5, [r3], #-3950	; 0xf6e
    8418:	5f747261 	svcpl	0x00747261
    841c:	4a5f005f 	bmi	17c85a0 <__bss_end__+0x17b625c>
    8420:	65525f76 	ldrbvs	r5, [r2, #-3958]	; 0xf76
    8424:	74736967 	ldrbtvc	r6, [r3], #-2407	; 0x967
    8428:	6c437265 	sfmvs	f7, 2, [r3], {101}	; 0x65
    842c:	65737361 	ldrbvs	r7, [r3, #-865]!	; 0x361
    8430:	495f0073 	ldmdbmi	pc, {r0, r1, r4, r5, r6}^	; <UNPREDICTABLE>
    8434:	725f4d54 	subsvc	r4, pc, #84, 26	; 0x1500
    8438:	73696765 	cmnvc	r9, #26476544	; 0x1940000
    843c:	54726574 	ldrbtpl	r6, [r2], #-1396	; 0x574
    8440:	6f6c434d 	svcvs	0x006c434d
    8444:	6154656e 	cmpvs	r4, lr, ror #10
    8448:	00656c62 	rsbeq	r6, r5, r2, ror #24
    844c:	006e6973 	rsbeq	r6, lr, r3, ror r9
    8450:	6f6f6c66 	svcvs	0x006f6c66
    8454:	696c0072 	stmdbvs	ip!, {r1, r4, r5, r6}^
    8458:	732e6362 	teqvc	lr, #-2013265919	; 0x88000001
    845c:	00362e6f 	eorseq	r2, r6, pc, ror #28
    8460:	6e617273 	mcrvs	2, 3, r7, cr1, cr3, {3}
    8464:	6f660064 	svcvs	0x00660064
    8468:	006e6570 	rsbeq	r6, lr, r0, ror r5
    846c:	73747570 	cmnvc	r4, #112, 10	; 0x1c000000
    8470:	6f626100 	svcvs	0x00626100
    8474:	5f007472 	svcpl	0x00007472
    8478:	7373615f 	cmnvc	r3, #-1073741801	; 0xc0000017
    847c:	5f747265 	svcpl	0x00747265
    8480:	6c696166 	stfvse	f6, [r9], #-408	; 0xfffffe68
    8484:	616d6d00 	cmnvs	sp, r0, lsl #26
    8488:	65720070 	ldrbvs	r0, [r2, #-112]!	; 0x70
    848c:	6d006461 	cfstrsvs	mvf6, [r0, #-388]	; 0xfffffe7c
    8490:	70636d65 	rsbvc	r6, r3, r5, ror #26
    8494:	63660079 	cmnvs	r6, #121	; 0x79
    8498:	65736f6c 	ldrbvs	r6, [r3, #-3948]!	; 0xf6c
    849c:	69617200 	stmdbvs	r1!, {r9, ip, sp, lr}^
    84a0:	6d006573 	cfstr32vs	mvfx6, [r0, #-460]	; 0xfffffe34
    84a4:	616d6e75 	smcvs	55013	; 0xd6e5
    84a8:	70660070 	rsbvc	r0, r6, r0, ror r0
    84ac:	746e6972 	strbtvc	r6, [lr], #-2418	; 0x972
    84b0:	73710066 	cmnvc	r1, #102	; 0x66
    84b4:	0074726f 	rsbseq	r7, r4, pc, ror #4
    84b8:	63737973 	cmnvs	r3, #1884160	; 0x1cc000
    84bc:	006c6c61 	rsbeq	r6, ip, r1, ror #24
    84c0:	696c5f5f 	stmdbvs	ip!, {r0, r1, r2, r3, r4, r6, r8, r9, sl, fp, ip, lr}^
    84c4:	735f6362 	cmpvc	pc, #-2013265919	; 0x88000001
    84c8:	74726174 	ldrbtvc	r6, [r2], #-372	; 0x174
    84cc:	69616d5f 	stmdbvs	r1!, {r0, r1, r2, r3, r4, r6, r8, sl, fp, sp, lr}^
    84d0:	4c47006e 	mcrrmi	0, 6, r0, r7, cr14
    84d4:	5f434249 	svcpl	0x00434249
    84d8:	00342e32 	eorseq	r2, r4, r2, lsr lr

Disassembly of section .gnu.version:

000084dc <.gnu.version>:
    84dc:	00020000 	andeq	r0, r2, r0
    84e0:	00020000 	andeq	r0, r2, r0
    84e4:	00020002 	andeq	r0, r2, r2
    84e8:	00030002 	andeq	r0, r3, r2
    84ec:	00020002 	andeq	r0, r2, r2
    84f0:	00020000 	andeq	r0, r2, r0
    84f4:	00030002 	andeq	r0, r3, r2
    84f8:	00020002 	andeq	r0, r2, r2
    84fc:	00020002 	andeq	r0, r2, r2
    8500:	00020002 	andeq	r0, r2, r2
    8504:	00020000 	andeq	r0, r2, r0
    8508:	00020000 	andeq	r0, r2, r0
    850c:	00020002 	andeq	r0, r2, r2

Disassembly of section .gnu.version_r:

00008510 <.gnu.version_r>:
    8510:	00010001 	andeq	r0, r1, r1
    8514:	00000001 	andeq	r0, r0, r1
    8518:	00000010 	andeq	r0, r0, r0, lsl r0
    851c:	00000020 	andeq	r0, r0, r0, lsr #32
    8520:	0d696914 	stcleq	9, cr6, [r9, #-80]!	; 0xffffffb0
    8524:	00030000 	andeq	r0, r3, r0
    8528:	000000ea 	andeq	r0, r0, sl, ror #1
    852c:	00000000 	andeq	r0, r0, r0
    8530:	00010001 	andeq	r0, r1, r1
    8534:	0000006e 	andeq	r0, r0, lr, rrx
    8538:	00000010 	andeq	r0, r0, r0, lsl r0
    853c:	00000000 	andeq	r0, r0, r0
    8540:	0d696914 	stcleq	9, cr6, [r9, #-80]!	; 0xffffffb0
    8544:	00020000 	andeq	r0, r2, r0
    8548:	000000ea 	andeq	r0, r0, sl, ror #1
    854c:	00000000 	andeq	r0, r0, r0

Disassembly of section .rel.dyn:

00008550 <.rel.dyn>:
    8550:	000122d4 	ldrdeq	r2, [r1], -r4
    8554:	00000a15 	andeq	r0, r0, r5, lsl sl

Disassembly of section .rel.plt:

00008558 <.rel.plt>:
    8558:	0001227c 	andeq	r2, r1, ip, ror r2
    855c:	00000116 	andeq	r0, r0, r6, lsl r1
    8560:	00012280 	andeq	r2, r1, r0, lsl #5
    8564:	00000316 	andeq	r0, r0, r6, lsl r3
    8568:	00012284 	andeq	r2, r1, r4, lsl #5
    856c:	00000416 	andeq	r0, r0, r6, lsl r4
    8570:	00012288 	andeq	r2, r1, r8, lsl #5
    8574:	00000516 	andeq	r0, r0, r6, lsl r5
    8578:	0001228c 	andeq	r2, r1, ip, lsl #5
    857c:	00000616 	andeq	r0, r0, r6, lsl r6
    8580:	00012290 	muleq	r1, r0, r2
    8584:	00000716 	andeq	r0, r0, r6, lsl r7
    8588:	00012294 	muleq	r1, r4, r2
    858c:	00000816 	andeq	r0, r0, r6, lsl r8
    8590:	00012298 	muleq	r1, r8, r2
    8594:	00000916 	andeq	r0, r0, r6, lsl r9
    8598:	0001229c 	muleq	r1, ip, r2
    859c:	00000a16 	andeq	r0, r0, r6, lsl sl
    85a0:	000122a0 	andeq	r2, r1, r0, lsr #5
    85a4:	00000b16 	andeq	r0, r0, r6, lsl fp
    85a8:	000122a4 	andeq	r2, r1, r4, lsr #5
    85ac:	00000c16 	andeq	r0, r0, r6, lsl ip
    85b0:	000122a8 	andeq	r2, r1, r8, lsr #5
    85b4:	00000d16 	andeq	r0, r0, r6, lsl sp
    85b8:	000122ac 	andeq	r2, r1, ip, lsr #5
    85bc:	00000e16 	andeq	r0, r0, r6, lsl lr
    85c0:	000122b0 			; <UNDEFINED> instruction: 0x000122b0
    85c4:	00000f16 	andeq	r0, r0, r6, lsl pc
    85c8:	000122b4 			; <UNDEFINED> instruction: 0x000122b4
    85cc:	00001016 	andeq	r1, r0, r6, lsl r0
    85d0:	000122b8 			; <UNDEFINED> instruction: 0x000122b8
    85d4:	00001116 	andeq	r1, r0, r6, lsl r1
    85d8:	000122bc 			; <UNDEFINED> instruction: 0x000122bc
    85dc:	00001216 	andeq	r1, r0, r6, lsl r2
    85e0:	000122c0 	andeq	r2, r1, r0, asr #5
    85e4:	00001316 	andeq	r1, r0, r6, lsl r3
    85e8:	000122c4 	andeq	r2, r1, r4, asr #5
    85ec:	00001516 	andeq	r1, r0, r6, lsl r5
    85f0:	000122c8 	andeq	r2, r1, r8, asr #5
    85f4:	00001716 	andeq	r1, r0, r6, lsl r7
    85f8:	000122cc 	andeq	r2, r1, ip, asr #5
    85fc:	00001816 	andeq	r1, r0, r6, lsl r8
    8600:	000122d0 	ldrdeq	r2, [r1], -r0
    8604:	00001916 	andeq	r1, r0, r6, lsl r9

Disassembly of section .init:

00008608 <_init>:
    8608:	e92d4008 	push	{r3, lr}
    860c:	eb000349 	bl	9338 <call_weak_fn>
    8610:	e8bd8008 	pop	{r3, pc}

Disassembly of section .plt:

00008614 <.plt>:
    8614:	e52de004 	push	{lr}		; (str lr, [sp, #-4]!)
    8618:	e59fe004 	ldr	lr, [pc, #4]	; 8624 <_init+0x1c>
    861c:	e08fe00e 	add	lr, pc, lr
    8620:	e5bef008 	ldr	pc, [lr, #8]!
    8624:	00009c4c 	andeq	r9, r0, ip, asr #24
    8628:	e28fc600 	add	ip, pc, #0, 12
    862c:	e28cca09 	add	ip, ip, #36864	; 0x9000
    8630:	e5bcfc4c 	ldr	pc, [ip, #3148]!	; 0xc4c
    8634:	e28fc600 	add	ip, pc, #0, 12
    8638:	e28cca09 	add	ip, ip, #36864	; 0x9000
    863c:	e5bcfc44 	ldr	pc, [ip, #3140]!	; 0xc44
    8640:	e28fc600 	add	ip, pc, #0, 12
    8644:	e28cca09 	add	ip, ip, #36864	; 0x9000
    8648:	e5bcfc3c 	ldr	pc, [ip, #3132]!	; 0xc3c
    864c:	e28fc600 	add	ip, pc, #0, 12
    8650:	e28cca09 	add	ip, ip, #36864	; 0x9000
    8654:	e5bcfc34 	ldr	pc, [ip, #3124]!	; 0xc34
    8658:	e28fc600 	add	ip, pc, #0, 12
    865c:	e28cca09 	add	ip, ip, #36864	; 0x9000
    8660:	e5bcfc2c 	ldr	pc, [ip, #3116]!	; 0xc2c
    8664:	e28fc600 	add	ip, pc, #0, 12
    8668:	e28cca09 	add	ip, ip, #36864	; 0x9000
    866c:	e5bcfc24 	ldr	pc, [ip, #3108]!	; 0xc24
    8670:	e28fc600 	add	ip, pc, #0, 12
    8674:	e28cca09 	add	ip, ip, #36864	; 0x9000
    8678:	e5bcfc1c 	ldr	pc, [ip, #3100]!	; 0xc1c
    867c:	e28fc600 	add	ip, pc, #0, 12
    8680:	e28cca09 	add	ip, ip, #36864	; 0x9000
    8684:	e5bcfc14 	ldr	pc, [ip, #3092]!	; 0xc14
    8688:	e28fc600 	add	ip, pc, #0, 12
    868c:	e28cca09 	add	ip, ip, #36864	; 0x9000
    8690:	e5bcfc0c 	ldr	pc, [ip, #3084]!	; 0xc0c
    8694:	e28fc600 	add	ip, pc, #0, 12
    8698:	e28cca09 	add	ip, ip, #36864	; 0x9000
    869c:	e5bcfc04 	ldr	pc, [ip, #3076]!	; 0xc04
    86a0:	e28fc600 	add	ip, pc, #0, 12
    86a4:	e28cca09 	add	ip, ip, #36864	; 0x9000
    86a8:	e5bcfbfc 	ldr	pc, [ip, #3068]!	; 0xbfc
    86ac:	e28fc600 	add	ip, pc, #0, 12
    86b0:	e28cca09 	add	ip, ip, #36864	; 0x9000
    86b4:	e5bcfbf4 	ldr	pc, [ip, #3060]!	; 0xbf4
    86b8:	e28fc600 	add	ip, pc, #0, 12
    86bc:	e28cca09 	add	ip, ip, #36864	; 0x9000
    86c0:	e5bcfbec 	ldr	pc, [ip, #3052]!	; 0xbec
    86c4:	e28fc600 	add	ip, pc, #0, 12
    86c8:	e28cca09 	add	ip, ip, #36864	; 0x9000
    86cc:	e5bcfbe4 	ldr	pc, [ip, #3044]!	; 0xbe4
    86d0:	e28fc600 	add	ip, pc, #0, 12
    86d4:	e28cca09 	add	ip, ip, #36864	; 0x9000
    86d8:	e5bcfbdc 	ldr	pc, [ip, #3036]!	; 0xbdc
    86dc:	e28fc600 	add	ip, pc, #0, 12
    86e0:	e28cca09 	add	ip, ip, #36864	; 0x9000
    86e4:	e5bcfbd4 	ldr	pc, [ip, #3028]!	; 0xbd4
    86e8:	4778      	bx	pc
    86ea:	46c0      	nop			; (mov r8, r8)
    86ec:	e28fc600 	add	ip, pc, #0, 12
    86f0:	e28cca09 	add	ip, ip, #36864	; 0x9000
    86f4:	e5bcfbc8 	ldr	pc, [ip, #3016]!	; 0xbc8
    86f8:	e28fc600 	add	ip, pc, #0, 12
    86fc:	e28cca09 	add	ip, ip, #36864	; 0x9000
    8700:	e5bcfbc0 	ldr	pc, [ip, #3008]!	; 0xbc0
    8704:	e28fc600 	add	ip, pc, #0, 12
    8708:	e28cca09 	add	ip, ip, #36864	; 0x9000
    870c:	e5bcfbb8 	ldr	pc, [ip, #3000]!	; 0xbb8
    8710:	e28fc600 	add	ip, pc, #0, 12
    8714:	e28cca09 	add	ip, ip, #36864	; 0x9000
    8718:	e5bcfbb0 	ldr	pc, [ip, #2992]!	; 0xbb0
    871c:	4778      	bx	pc
    871e:	46c0      	nop			; (mov r8, r8)
    8720:	e28fc600 	add	ip, pc, #0, 12
    8724:	e28cca09 	add	ip, ip, #36864	; 0x9000
    8728:	e5bcfba4 	ldr	pc, [ip, #2980]!	; 0xba4
    872c:	e28fc600 	add	ip, pc, #0, 12
    8730:	e28cca09 	add	ip, ip, #36864	; 0x9000
    8734:	e5bcfb9c 	ldr	pc, [ip, #2972]!	; 0xb9c

Disassembly of section .text:

00008738 <fini>:
    8738:	f242 23e0 	movw	r3, #8928	; 0x22e0
    873c:	f2c0 0301 	movt	r3, #1
    8740:	6818      	ldr	r0, [r3, #0]
    8742:	f7ff bfeb 	b.w	871c <_init+0x114>
    8746:	bf00      	nop

00008748 <init>:
    8748:	b5f0      	push	{r4, r5, r6, r7, lr}
    874a:	f242 26f0 	movw	r6, #8944	; 0x22f0
    874e:	b083      	sub	sp, #12
    8750:	2700      	movs	r7, #0
    8752:	f2c0 0601 	movt	r6, #1
    8756:	f04f 33ff 	mov.w	r3, #4294967295
    875a:	9300      	str	r3, [sp, #0]
    875c:	2400      	movs	r4, #0
    875e:	2500      	movs	r5, #0
    8760:	4631      	mov	r1, r6
    8762:	9701      	str	r7, [sp, #4]
    8764:	463a      	mov	r2, r7
    8766:	f44f 70b6 	mov.w	r0, #364	; 0x16c
    876a:	e9c6 4502 	strd	r4, r5, [r6, #8]
    876e:	6037      	str	r7, [r6, #0]
    8770:	f7ff ef96 	blx	86a0 <_init+0x98>
    8774:	f242 23e0 	movw	r3, #8928	; 0x22e0
    8778:	f2c0 0301 	movt	r3, #1
    877c:	6018      	str	r0, [r3, #0]
    877e:	b003      	add	sp, #12
    8780:	bdf0      	pop	{r4, r5, r6, r7, pc}
    8782:	bf00      	nop

00008784 <main>:
    8784:	e92d 4ff0 	stmdb	sp!, {r4, r5, r6, r7, r8, r9, sl, fp, lr}
    8788:	f24a 0004 	movw	r0, #40964	; 0xa004
    878c:	ed2d 8b10 	vpush	{d8-d15}
    8790:	f241 0102 	movw	r1, #4098	; 0x1002
    8794:	f5ad 5d16 	sub.w	sp, sp, #9600	; 0x2580
    8798:	f2c0 0000 	movt	r0, #0
    879c:	b087      	sub	sp, #28
    879e:	f2c0 0110 	movt	r1, #16
    87a2:	f7ff ef78 	blx	8694 <_init+0x8c>
    87a6:	900b      	str	r0, [sp, #44]	; 0x2c
    87a8:	3001      	adds	r0, #1
    87aa:	f000 8586 	beq.w	92ba <main+0xb36>
    87ae:	9c0b      	ldr	r4, [sp, #44]	; 0x2c
    87b0:	f04f 4340 	mov.w	r3, #3221225472	; 0xc0000000
    87b4:	f242 3540 	movw	r5, #9024	; 0x2340
    87b8:	9301      	str	r3, [sp, #4]
    87ba:	f2c0 0501 	movt	r5, #1
    87be:	2000      	movs	r0, #0
    87c0:	9400      	str	r4, [sp, #0]
    87c2:	f44f 3100 	mov.w	r1, #131072	; 0x20000
    87c6:	2203      	movs	r2, #3
    87c8:	2301      	movs	r3, #1
    87ca:	f7ff ef76 	blx	86b8 <_init+0xb0>
    87ce:	6028      	str	r0, [r5, #0]
    87d0:	3001      	adds	r0, #1
    87d2:	9509      	str	r5, [sp, #36]	; 0x24
    87d4:	f000 858c 	beq.w	92f0 <main+0xb6c>
    87d8:	9e0b      	ldr	r6, [sp, #44]	; 0x2c
    87da:	f04f 437c 	mov.w	r3, #4227858432	; 0xfc000000
    87de:	9301      	str	r3, [sp, #4]
    87e0:	2000      	movs	r0, #0
    87e2:	2301      	movs	r3, #1
    87e4:	f04f 6180 	mov.w	r1, #67108864	; 0x4000000
    87e8:	9600      	str	r6, [sp, #0]
    87ea:	2203      	movs	r2, #3
    87ec:	f7ff ef64 	blx	86b8 <_init+0xb0>
    87f0:	1c43      	adds	r3, r0, #1
    87f2:	f000 857d 	beq.w	92f0 <main+0xb6c>
    87f6:	9e0b      	ldr	r6, [sp, #44]	; 0x2c
    87f8:	2300      	movs	r3, #0
    87fa:	f242 3438 	movw	r4, #9016	; 0x2338
    87fe:	f2cc 0302 	movt	r3, #49154	; 0xc002
    8802:	f100 7548 	add.w	r5, r0, #52428800	; 0x3200000
    8806:	f2c0 0401 	movt	r4, #1
    880a:	9301      	str	r3, [sp, #4]
    880c:	2000      	movs	r0, #0
    880e:	9600      	str	r6, [sp, #0]
    8810:	2301      	movs	r3, #1
    8812:	f44f 6100 	mov.w	r1, #2048	; 0x800
    8816:	2203      	movs	r2, #3
    8818:	6025      	str	r5, [r4, #0]
    881a:	f7ff ef4e 	blx	86b8 <_init+0xb0>
    881e:	f242 333c 	movw	r3, #9020	; 0x233c
    8822:	f2c0 0301 	movt	r3, #1
    8826:	6018      	str	r0, [r3, #0]
    8828:	3001      	adds	r0, #1
    882a:	f000 8559 	beq.w	92e0 <main+0xb5c>
    882e:	ed9f 9be0 	vldr	d9, [pc, #896]	; 8bb0 <main+0x42c>
    8832:	f10d 0b98 	add.w	fp, sp, #152	; 0x98
    8836:	ed9f dbe0 	vldr	d13, [pc, #896]	; 8bb8 <main+0x434>
    883a:	f04f 0a00 	mov.w	sl, #0
    883e:	ed9f bbe0 	vldr	d11, [pc, #896]	; 8bc0 <main+0x43c>
    8842:	ad46      	add	r5, sp, #280	; 0x118
    8844:	f000 fde2 	bl	940c <initrng>
    8848:	eeb4 eb00 	vmov.f64	d14, #64	; 0x40
    884c:	4658      	mov	r0, fp
    884e:	2110      	movs	r1, #16
    8850:	eeb7 8b00 	vmov.f64	d8, #112	; 0x70
    8854:	f8cd a028 	str.w	sl, [sp, #40]	; 0x28
    8858:	f000 fdee 	bl	9438 <gensin>
    885c:	ab0e      	add	r3, sp, #56	; 0x38
    885e:	4658      	mov	r0, fp
    8860:	2110      	movs	r1, #16
    8862:	2207      	movs	r2, #7
    8864:	f001 f856 	bl	9914 <scalesig>
    8868:	ed9d 1a0a 	vldr	s2, [sp, #40]	; 0x28
    886c:	f04f 0900 	mov.w	r9, #0
    8870:	eeb0 ab4e 	vmov.f64	d10, d14
    8874:	f50d 6aaf 	add.w	sl, sp, #1400	; 0x578
    8878:	9e0a      	ldr	r6, [sp, #40]	; 0x28
    887a:	f8cd a014 	str.w	sl, [sp, #20]
    887e:	eeb8 7bc1 	vcvt.f64.s32	d7, s2
    8882:	03b6      	lsls	r6, r6, #14
    8884:	ee07 ab0e 	vmla.f64	d10, d7, d14
    8888:	9608      	str	r6, [sp, #32]
    888a:	ac74      	add	r4, sp, #464	; 0x1d0
    888c:	2600      	movs	r6, #0
    888e:	f7ff ef26 	blx	86dc <_init+0xd4>
    8892:	ee01 0a10 	vmov	s2, r0
    8896:	eeb8 7bc1 	vcvt.f64.s32	d7, s2
    889a:	f894 f000 	pld	[r4]
    889e:	3420      	adds	r4, #32
    88a0:	ee37 7b07 	vadd.f64	d7, d7, d7
    88a4:	ee87 7b09 	vdiv.f64	d7, d7, d9
    88a8:	ee37 7b48 	vsub.f64	d7, d7, d8
    88ac:	ee27 7b0a 	vmul.f64	d7, d7, d10
    88b0:	ed04 7b16 	vstr	d7, [r4, #-88]	; 0xffffffa8
    88b4:	f7ff ef12 	blx	86dc <_init+0xd4>
    88b8:	ee01 0a90 	vmov	s3, r0
    88bc:	eeb8 7be1 	vcvt.f64.s32	d7, s3
    88c0:	ee37 7b07 	vadd.f64	d7, d7, d7
    88c4:	ee87 7b09 	vdiv.f64	d7, d7, d9
    88c8:	ee37 7b48 	vsub.f64	d7, d7, d8
    88cc:	ee27 7b0a 	vmul.f64	d7, d7, d10
    88d0:	ed04 7b14 	vstr	d7, [r4, #-80]	; 0xffffffb0
    88d4:	f7ff ef02 	blx	86dc <_init+0xd4>
    88d8:	ee02 0a10 	vmov	s4, r0
    88dc:	eeb8 7bc2 	vcvt.f64.s32	d7, s4
    88e0:	ee37 7b07 	vadd.f64	d7, d7, d7
    88e4:	ee87 7b09 	vdiv.f64	d7, d7, d9
    88e8:	ee37 7b48 	vsub.f64	d7, d7, d8
    88ec:	ee27 7b0a 	vmul.f64	d7, d7, d10
    88f0:	ed04 7b12 	vstr	d7, [r4, #-72]	; 0xffffffb8
    88f4:	f7ff eef2 	blx	86dc <_init+0xd4>
    88f8:	ee02 0a90 	vmov	s5, r0
    88fc:	1d33      	adds	r3, r6, #4
    88fe:	eeb8 7be2 	vcvt.f64.s32	d7, s5
    8902:	2b7c      	cmp	r3, #124	; 0x7c
    8904:	f1c6 027c 	rsb	r2, r6, #124	; 0x7c
    8908:	461e      	mov	r6, r3
    890a:	ee37 7b07 	vadd.f64	d7, d7, d7
    890e:	ee87 7b09 	vdiv.f64	d7, d7, d9
    8912:	ee37 7b48 	vsub.f64	d7, d7, d8
    8916:	ee27 7b0a 	vmul.f64	d7, d7, d10
    891a:	ed04 7b10 	vstr	d7, [r4, #-64]	; 0xffffffc0
    891e:	d1b6      	bne.n	888e <main+0x10a>
    8920:	9e05      	ldr	r6, [sp, #20]
    8922:	4614      	mov	r4, r2
    8924:	f7ff eeda 	blx	86dc <_init+0xd4>
    8928:	ee04 0a10 	vmov	s8, r0
    892c:	3c01      	subs	r4, #1
    892e:	eeb8 7bc4 	vcvt.f64.s32	d7, s8
    8932:	ee37 7b07 	vadd.f64	d7, d7, d7
    8936:	ee87 7b09 	vdiv.f64	d7, d7, d9
    893a:	ee37 7b48 	vsub.f64	d7, d7, d8
    893e:	ee27 7b0a 	vmul.f64	d7, d7, d10
    8942:	eca6 7b02 	vstmia	r6!, {d7}
    8946:	d1ed      	bne.n	8924 <main+0x1a0>
    8948:	ed9b 4b02 	vldr	d4, [fp, #8]
    894c:	aa66      	add	r2, sp, #408	; 0x198
    894e:	ed9d 6be0 	vldr	d6, [sp, #896]	; 0x380
    8952:	4611      	mov	r1, r2
    8954:	ed9b 2b06 	vldr	d2, [fp, #24]
    8958:	4613      	mov	r3, r2
    895a:	ed9b 3b04 	vldr	d3, [fp, #16]
    895e:	3318      	adds	r3, #24
    8960:	ed9d cbe4 	vldr	d12, [sp, #912]	; 0x390
    8964:	aa8c      	add	r2, sp, #560	; 0x230
    8966:	ee36 6b04 	vadd.f64	d6, d6, d4
    896a:	ed9d 4be8 	vldr	d4, [sp, #928]	; 0x3a0
    896e:	ed9b 1b0a 	vldr	d1, [fp, #40]	; 0x28
    8972:	ed9d 0be2 	vldr	d0, [sp, #904]	; 0x388
    8976:	ed9b 7b00 	vldr	d7, [fp]
    897a:	ed9b fb08 	vldr	d15, [fp, #32]
    897e:	ed9d 5bde 	vldr	d5, [sp, #888]	; 0x378
    8982:	ee34 1b01 	vadd.f64	d1, d4, d1
    8986:	ee3c cb02 	vadd.f64	d12, d12, d2
    898a:	ed9d 4bea 	vldr	d4, [sp, #936]	; 0x3a8
    898e:	ed9d 2be6 	vldr	d2, [sp, #920]	; 0x398
    8992:	ee30 0b03 	vadd.f64	d0, d0, d3
    8996:	ed9b 3b0c 	vldr	d3, [fp, #48]	; 0x30
    899a:	ee35 5b07 	vadd.f64	d5, d5, d7
    899e:	ee32 7b0f 	vadd.f64	d7, d2, d15
    89a2:	ed9b fb0e 	vldr	d15, [fp, #56]	; 0x38
    89a6:	ee34 2b03 	vadd.f64	d2, d4, d3
    89aa:	ed9d 4bec 	vldr	d4, [sp, #944]	; 0x3b0
    89ae:	ed8d 5bde 	vstr	d5, [sp, #888]	; 0x378
    89b2:	ed9d 5bee 	vldr	d5, [sp, #952]	; 0x3b8
    89b6:	ed8d 6be0 	vstr	d6, [sp, #896]	; 0x380
    89ba:	ee34 3b0f 	vadd.f64	d3, d4, d15
    89be:	ed9b fb10 	vldr	d15, [fp, #64]	; 0x40
    89c2:	ed9d 6bf0 	vldr	d6, [sp, #960]	; 0x3c0
    89c6:	ed8d 0be2 	vstr	d0, [sp, #904]	; 0x388
    89ca:	ed9b 0b16 	vldr	d0, [fp, #88]	; 0x58
    89ce:	ee35 4b0f 	vadd.f64	d4, d5, d15
    89d2:	ed9b fb12 	vldr	d15, [fp, #72]	; 0x48
    89d6:	ed8d 7be6 	vstr	d7, [sp, #920]	; 0x398
    89da:	ed8d 1be8 	vstr	d1, [sp, #928]	; 0x3a0
    89de:	ed8d 2bea 	vstr	d2, [sp, #936]	; 0x3a8
    89e2:	ee36 5b0f 	vadd.f64	d5, d6, d15
    89e6:	ed9d 6bf2 	vldr	d6, [sp, #968]	; 0x3c8
    89ea:	ed9b fb14 	vldr	d15, [fp, #80]	; 0x50
    89ee:	ed8d 3bec 	vstr	d3, [sp, #944]	; 0x3b0
    89f2:	ed8d cbe4 	vstr	d12, [sp, #912]	; 0x390
    89f6:	ee36 6b0f 	vadd.f64	d6, d6, d15
    89fa:	ed8d 6bf2 	vstr	d6, [sp, #968]	; 0x3c8
    89fe:	ed9d 6bf4 	vldr	d6, [sp, #976]	; 0x3d0
    8a02:	ed8d 4bee 	vstr	d4, [sp, #952]	; 0x3b8
    8a06:	ed8d 5bf0 	vstr	d5, [sp, #960]	; 0x3c0
    8a0a:	ed9d 5bf6 	vldr	d5, [sp, #984]	; 0x3d8
    8a0e:	ee36 7b00 	vadd.f64	d7, d6, d0
    8a12:	ed9d 3bfa 	vldr	d3, [sp, #1000]	; 0x3e8
    8a16:	ed9d 1bfc 	vldr	d1, [sp, #1008]	; 0x3f0
    8a1a:	ed9b 6b18 	vldr	d6, [fp, #96]	; 0x60
    8a1e:	ed8d 7bf4 	vstr	d7, [sp, #976]	; 0x3d0
    8a22:	ed9b 4b1a 	vldr	d4, [fp, #104]	; 0x68
    8a26:	ed9d 7bf8 	vldr	d7, [sp, #992]	; 0x3e0
    8a2a:	ed9b 2b1c 	vldr	d2, [fp, #112]	; 0x70
    8a2e:	ed9b 0b1e 	vldr	d0, [fp, #120]	; 0x78
    8a32:	ee35 6b06 	vadd.f64	d6, d5, d6
    8a36:	ee37 7b04 	vadd.f64	d7, d7, d4
    8a3a:	ee33 3b02 	vadd.f64	d3, d3, d2
    8a3e:	ee31 1b00 	vadd.f64	d1, d1, d0
    8a42:	ed91 5b00 	vldr	d5, [r1]
    8a46:	ed8d 6bf6 	vstr	d6, [sp, #984]	; 0x3d8
    8a4a:	ed8d 7bf8 	vstr	d7, [sp, #992]	; 0x3e0
    8a4e:	ed8d 3bfa 	vstr	d3, [sp, #1000]	; 0x3e8
    8a52:	ed8d 1bfc 	vstr	d1, [sp, #1008]	; 0x3f0
    8a56:	ed13 4b06 	vldr	d4, [r3, #-24]	; 0xffffffe8
    8a5a:	1d21      	adds	r1, r4, #4
    8a5c:	ed13 7b04 	vldr	d7, [r3, #-16]
    8a60:	f1c4 007c 	rsb	r0, r4, #124	; 0x7c
    8a64:	eeb0 3bc5 	vabs.f64	d3, d5
    8a68:	460c      	mov	r4, r1
    8a6a:	ed13 6b02 	vldr	d6, [r3, #-8]
    8a6e:	3320      	adds	r3, #32
    8a70:	eeb0 2bc4 	vabs.f64	d2, d4
    8a74:	eeb4 2bc3 	vcmpe.f64	d2, d3
    8a78:	eef1 fa10 	vmrs	APSR_nzcv, fpscr
    8a7c:	bfc8      	it	gt
    8a7e:	eeb0 5b44 	vmovgt.f64	d5, d4
    8a82:	eeb0 4bc5 	vabs.f64	d4, d5
    8a86:	eeb0 3bc7 	vabs.f64	d3, d7
    8a8a:	eeb4 3bc4 	vcmpe.f64	d3, d4
    8a8e:	eef1 fa10 	vmrs	APSR_nzcv, fpscr
    8a92:	bfc8      	it	gt
    8a94:	eeb0 5b47 	vmovgt.f64	d5, d7
    8a98:	eeb0 4bc5 	vabs.f64	d4, d5
    8a9c:	ed12 7b20 	vldr	d7, [r2, #-128]	; 0xffffff80
    8aa0:	eeb0 3bc6 	vabs.f64	d3, d6
    8aa4:	eeb4 3bc4 	vcmpe.f64	d3, d4
    8aa8:	eef1 fa10 	vmrs	APSR_nzcv, fpscr
    8aac:	bfc8      	it	gt
    8aae:	eeb0 5b46 	vmovgt.f64	d5, d6
    8ab2:	eeb0 6bc5 	vabs.f64	d6, d5
    8ab6:	eeb0 4bc7 	vabs.f64	d4, d7
    8aba:	eeb4 4bc6 	vcmpe.f64	d4, d6
    8abe:	eef1 fa10 	vmrs	APSR_nzcv, fpscr
    8ac2:	bfc8      	it	gt
    8ac4:	eeb0 5b47 	vmovgt.f64	d5, d7
    8ac8:	297c      	cmp	r1, #124	; 0x7c
    8aca:	f892 f000 	pld	[r2]
    8ace:	f102 0220 	add.w	r2, r2, #32
    8ad2:	d1c0      	bne.n	8a56 <main+0x2d2>
    8ad4:	f100 027c 	add.w	r2, r0, #124	; 0x7c
    8ad8:	ac66      	add	r4, sp, #408	; 0x198
    8ada:	9b05      	ldr	r3, [sp, #20]
    8adc:	eb04 02c2 	add.w	r2, r4, r2, lsl #3
    8ae0:	ecb3 7b02 	vldmia	r3!, {d7}
    8ae4:	eeb0 6bc5 	vabs.f64	d6, d5
    8ae8:	eeb0 4bc7 	vabs.f64	d4, d7
    8aec:	eeb4 4bc6 	vcmpe.f64	d4, d6
    8af0:	eef1 fa10 	vmrs	APSR_nzcv, fpscr
    8af4:	bfc8      	it	gt
    8af6:	eeb0 5b47 	vmovgt.f64	d5, d7
    8afa:	4293      	cmp	r3, r2
    8afc:	d1f0      	bne.n	8ae0 <main+0x35c>
    8afe:	eeb5 5bc0 	vcmpe.f64	d5, #0.0
    8b02:	f50d 7aec 	add.w	sl, sp, #472	; 0x1d8
    8b06:	eef1 fa10 	vmrs	APSR_nzcv, fpscr
    8b0a:	f04f 0400 	mov.w	r4, #0
    8b0e:	f105 0801 	add.w	r8, r5, #1
    8b12:	f105 0702 	add.w	r7, r5, #2
    8b16:	bfc8      	it	gt
    8b18:	ee8b cb05 	vdivgt.f64	d12, d11, d5
    8b1c:	f105 0603 	add.w	r6, r5, #3
    8b20:	bfd8      	it	le
    8b22:	ee8d cb05 	vdivle.f64	d12, d13, d5
    8b26:	ed1a 0b10 	vldr	d0, [sl, #-64]	; 0xffffffc0
    8b2a:	f89a f000 	pld	[sl]
    8b2e:	f10a 0a20 	add.w	sl, sl, #32
    8b32:	ee2c 0b00 	vmul.f64	d0, d12, d0
    8b36:	f7ff ed96 	blx	8664 <_init+0x5c>
    8b3a:	eebd 0bc0 	vcvt.s32.f64	s0, d0
    8b3e:	ee10 3a10 	vmov	r3, s0
    8b42:	b2db      	uxtb	r3, r3
    8b44:	552b      	strb	r3, [r5, r4]
    8b46:	ed1a 0b16 	vldr	d0, [sl, #-88]	; 0xffffffa8
    8b4a:	ee2c 0b00 	vmul.f64	d0, d12, d0
    8b4e:	f7ff ed8a 	blx	8664 <_init+0x5c>
    8b52:	eebd 0bc0 	vcvt.s32.f64	s0, d0
    8b56:	ee10 3a10 	vmov	r3, s0
    8b5a:	b2db      	uxtb	r3, r3
    8b5c:	f808 3004 	strb.w	r3, [r8, r4]
    8b60:	ed1a 0b14 	vldr	d0, [sl, #-80]	; 0xffffffb0
    8b64:	ee2c 0b00 	vmul.f64	d0, d12, d0
    8b68:	f7ff ed7c 	blx	8664 <_init+0x5c>
    8b6c:	eebd 0bc0 	vcvt.s32.f64	s0, d0
    8b70:	ee10 3a10 	vmov	r3, s0
    8b74:	b2db      	uxtb	r3, r3
    8b76:	553b      	strb	r3, [r7, r4]
    8b78:	ed1a 0b12 	vldr	d0, [sl, #-72]	; 0xffffffb8
    8b7c:	ee2c 0b00 	vmul.f64	d0, d12, d0
    8b80:	f7ff ed70 	blx	8664 <_init+0x5c>
    8b84:	eebd 0bc0 	vcvt.s32.f64	s0, d0
    8b88:	1d23      	adds	r3, r4, #4
    8b8a:	2b7c      	cmp	r3, #124	; 0x7c
    8b8c:	f1c4 007c 	rsb	r0, r4, #124	; 0x7c
    8b90:	ee10 2a10 	vmov	r2, s0
    8b94:	b2d2      	uxtb	r2, r2
    8b96:	5532      	strb	r2, [r6, r4]
    8b98:	461c      	mov	r4, r3
    8b9a:	d1c4      	bne.n	8b26 <main+0x3a2>
    8b9c:	f100 067c 	add.w	r6, r0, #124	; 0x7c
    8ba0:	f50d 7acc 	add.w	sl, sp, #408	; 0x198
    8ba4:	9c05      	ldr	r4, [sp, #20]
    8ba6:	eb0a 06c6 	add.w	r6, sl, r6, lsl #3
    8baa:	f105 077c 	add.w	r7, r5, #124	; 0x7c
    8bae:	e00b      	b.n	8bc8 <main+0x444>
    8bb0:	ffc00000 			; <UNDEFINED> instruction: 0xffc00000
    8bb4:	41dfffff 	ldrshmi	pc, [pc, #255]	; 8cbb <main+0x537>	; <UNPREDICTABLE>
    8bb8:	00000000 	andeq	r0, r0, r0
    8bbc:	c0600000 	rsbgt	r0, r0, r0
    8bc0:	00000000 	andeq	r0, r0, r0
    8bc4:	405fc000 	subsmi	ip, pc, r0
    8bc8:	ecb4 0b02 	vldmia	r4!, {d0}
    8bcc:	ee20 0b0c 	vmul.f64	d0, d0, d12
    8bd0:	f7ff ed48 	blx	8664 <_init+0x5c>
    8bd4:	eebd 0bc0 	vcvt.s32.f64	s0, d0
    8bd8:	42b4      	cmp	r4, r6
    8bda:	ee10 3a10 	vmov	r3, s0
    8bde:	b2db      	uxtb	r3, r3
    8be0:	f807 3b01 	strb.w	r3, [r7], #1
    8be4:	d1f0      	bne.n	8bc8 <main+0x444>
    8be6:	9c09      	ldr	r4, [sp, #36]	; 0x24
    8be8:	2280      	movs	r2, #128	; 0x80
    8bea:	9e08      	ldr	r6, [sp, #32]
    8bec:	4629      	mov	r1, r5
    8bee:	6823      	ldr	r3, [r4, #0]
    8bf0:	eb03 0009 	add.w	r0, r3, r9
    8bf4:	4491      	add	r9, r2
    8bf6:	4430      	add	r0, r6
    8bf8:	f7ff ed2e 	blx	8658 <_init+0x50>
    8bfc:	f5b9 4f80 	cmp.w	r9, #16384	; 0x4000
    8c00:	f47f ae43 	bne.w	888a <main+0x106>
    8c04:	9c0a      	ldr	r4, [sp, #40]	; 0x28
    8c06:	3401      	adds	r4, #1
    8c08:	2c08      	cmp	r4, #8
    8c0a:	940a      	str	r4, [sp, #40]	; 0x28
    8c0c:	f47f ae2c 	bne.w	8868 <main+0xe4>
    8c10:	f242 24e0 	movw	r4, #8928	; 0x22e0
    8c14:	f50d 6ab3 	add.w	sl, sp, #1432	; 0x598
    8c18:	ad1c      	add	r5, sp, #112	; 0x70
    8c1a:	ae12      	add	r6, sp, #72	; 0x48
    8c1c:	f2c0 0401 	movt	r4, #1
    8c20:	f60a 7afc 	addw	sl, sl, #4092	; 0xffc
    8c24:	9508      	str	r5, [sp, #32]
    8c26:	9604      	str	r6, [sp, #16]
    8c28:	9406      	str	r4, [sp, #24]
    8c2a:	f8cd a01c 	str.w	sl, [sp, #28]
    8c2e:	9c06      	ldr	r4, [sp, #24]
    8c30:	f50d 51ac 	add.w	r1, sp, #5504	; 0x1580
    8c34:	3118      	adds	r1, #24
    8c36:	2208      	movs	r2, #8
    8c38:	2500      	movs	r5, #0
    8c3a:	6820      	ldr	r0, [r4, #0]
    8c3c:	2400      	movs	r4, #0
    8c3e:	e9c1 4500 	strd	r4, r5, [r1]
    8c42:	f7ff ed04 	blx	864c <_init+0x44>
    8c46:	2807      	cmp	r0, #7
    8c48:	bf9c      	itt	ls
    8c4a:	2000      	movls	r0, #0
    8c4c:	2100      	movls	r1, #0
    8c4e:	d905      	bls.n	8c5c <main+0x4d8>
    8c50:	f50d 5aac 	add.w	sl, sp, #5504	; 0x1580
    8c54:	f10a 0a18 	add.w	sl, sl, #24
    8c58:	e9da 0100 	ldrd	r0, r1, [sl]
    8c5c:	9c09      	ldr	r4, [sp, #36]	; 0x24
    8c5e:	f20d 5594 	addw	r5, sp, #1428	; 0x594
    8c62:	9e04      	ldr	r6, [sp, #16]
    8c64:	9505      	str	r5, [sp, #20]
    8c66:	6822      	ldr	r2, [r4, #0]
    8c68:	e8e6 0102 	strd	r0, r1, [r6], #8
    8c6c:	9604      	str	r6, [sp, #16]
    8c6e:	4692      	mov	sl, r2
    8c70:	2500      	movs	r5, #0
    8c72:	ebc2 010a 	rsb	r1, r2, sl
    8c76:	462c      	mov	r4, r5
    8c78:	462b      	mov	r3, r5
    8c7a:	e000      	b.n	8c7e <main+0x4fa>
    8c7c:	4603      	mov	r3, r0
    8c7e:	1c58      	adds	r0, r3, #1
    8c80:	f813 600a 	ldrb.w	r6, [r3, sl]
    8c84:	f000 0e7f 	and.w	lr, r0, #127	; 0x7f
    8c88:	f89d 9038 	ldrb.w	r9, [sp, #56]	; 0x38
    8c8c:	448e      	add	lr, r1
    8c8e:	1c9f      	adds	r7, r3, #2
    8c90:	f812 800e 	ldrb.w	r8, [r2, lr]
    8c94:	f007 077f 	and.w	r7, r7, #127	; 0x7f
    8c98:	f89d e039 	ldrb.w	lr, [sp, #57]	; 0x39
    8c9c:	440f      	add	r7, r1
    8c9e:	5dd7      	ldrb	r7, [r2, r7]
    8ca0:	fa4f f989 	sxtb.w	r9, r9
    8ca4:	f89d c03a 	ldrb.w	ip, [sp, #58]	; 0x3a
    8ca8:	b276      	sxtb	r6, r6
    8caa:	fa4f f888 	sxtb.w	r8, r8
    8cae:	fa4f fe8e 	sxtb.w	lr, lr
    8cb2:	b27f      	sxtb	r7, r7
    8cb4:	fb18 f80e 	smulbb	r8, r8, lr
    8cb8:	f103 0e03 	add.w	lr, r3, #3
    8cbc:	f00e 0e7f 	and.w	lr, lr, #127	; 0x7f
    8cc0:	fa4f fc8c 	sxtb.w	ip, ip
    8cc4:	448e      	add	lr, r1
    8cc6:	f812 e00e 	ldrb.w	lr, [r2, lr]
    8cca:	fb16 8609 	smlabb	r6, r6, r9, r8
    8cce:	f89d 903b 	ldrb.w	r9, [sp, #59]	; 0x3b
    8cd2:	f103 0804 	add.w	r8, r3, #4
    8cd6:	f008 087f 	and.w	r8, r8, #127	; 0x7f
    8cda:	4488      	add	r8, r1
    8cdc:	f812 8008 	ldrb.w	r8, [r2, r8]
    8ce0:	fb17 670c 	smlabb	r7, r7, ip, r6
    8ce4:	f89d c03c 	ldrb.w	ip, [sp, #60]	; 0x3c
    8ce8:	1d5e      	adds	r6, r3, #5
    8cea:	fa4f f989 	sxtb.w	r9, r9
    8cee:	fa4f fe8e 	sxtb.w	lr, lr
    8cf2:	f006 067f 	and.w	r6, r6, #127	; 0x7f
    8cf6:	fa4f f888 	sxtb.w	r8, r8
    8cfa:	440e      	add	r6, r1
    8cfc:	fa4f fc8c 	sxtb.w	ip, ip
    8d00:	fb1e 7e09 	smlabb	lr, lr, r9, r7
    8d04:	f812 9006 	ldrb.w	r9, [r2, r6]
    8d08:	1d9f      	adds	r7, r3, #6
    8d0a:	f89d 603d 	ldrb.w	r6, [sp, #61]	; 0x3d
    8d0e:	f007 077f 	and.w	r7, r7, #127	; 0x7f
    8d12:	440f      	add	r7, r1
    8d14:	fb18 e80c 	smlabb	r8, r8, ip, lr
    8d18:	f812 c007 	ldrb.w	ip, [r2, r7]
    8d1c:	f103 0e07 	add.w	lr, r3, #7
    8d20:	f89d 703e 	ldrb.w	r7, [sp, #62]	; 0x3e
    8d24:	fa4f f989 	sxtb.w	r9, r9
    8d28:	b276      	sxtb	r6, r6
    8d2a:	f00e 0e7f 	and.w	lr, lr, #127	; 0x7f
    8d2e:	fa4f fc8c 	sxtb.w	ip, ip
    8d32:	448e      	add	lr, r1
    8d34:	b27f      	sxtb	r7, r7
    8d36:	fb19 8606 	smlabb	r6, r9, r6, r8
    8d3a:	f812 900e 	ldrb.w	r9, [r2, lr]
    8d3e:	f103 0808 	add.w	r8, r3, #8
    8d42:	f89d e03f 	ldrb.w	lr, [sp, #63]	; 0x3f
    8d46:	f008 087f 	and.w	r8, r8, #127	; 0x7f
    8d4a:	4488      	add	r8, r1
    8d4c:	f812 8008 	ldrb.w	r8, [r2, r8]
    8d50:	fb1c 6707 	smlabb	r7, ip, r7, r6
    8d54:	f89d c040 	ldrb.w	ip, [sp, #64]	; 0x40
    8d58:	f103 0609 	add.w	r6, r3, #9
    8d5c:	fa4f f989 	sxtb.w	r9, r9
    8d60:	fa4f fe8e 	sxtb.w	lr, lr
    8d64:	f006 067f 	and.w	r6, r6, #127	; 0x7f
    8d68:	fa4f f888 	sxtb.w	r8, r8
    8d6c:	440e      	add	r6, r1
    8d6e:	fa4f fc8c 	sxtb.w	ip, ip
    8d72:	fb19 7e0e 	smlabb	lr, r9, lr, r7
    8d76:	f812 9006 	ldrb.w	r9, [r2, r6]
    8d7a:	f103 070a 	add.w	r7, r3, #10
    8d7e:	f89d 6041 	ldrb.w	r6, [sp, #65]	; 0x41
    8d82:	f007 077f 	and.w	r7, r7, #127	; 0x7f
    8d86:	440f      	add	r7, r1
    8d88:	fb18 e80c 	smlabb	r8, r8, ip, lr
    8d8c:	f812 c007 	ldrb.w	ip, [r2, r7]
    8d90:	f89d e042 	ldrb.w	lr, [sp, #66]	; 0x42
    8d94:	f103 070b 	add.w	r7, r3, #11
    8d98:	fa4f f989 	sxtb.w	r9, r9
    8d9c:	b276      	sxtb	r6, r6
    8d9e:	f007 077f 	and.w	r7, r7, #127	; 0x7f
    8da2:	fa4f fc8c 	sxtb.w	ip, ip
    8da6:	440f      	add	r7, r1
    8da8:	fa4f fe8e 	sxtb.w	lr, lr
    8dac:	fb19 8606 	smlabb	r6, r9, r6, r8
    8db0:	f812 9007 	ldrb.w	r9, [r2, r7]
    8db4:	f103 080c 	add.w	r8, r3, #12
    8db8:	f89d 7043 	ldrb.w	r7, [sp, #67]	; 0x43
    8dbc:	f008 087f 	and.w	r8, r8, #127	; 0x7f
    8dc0:	4488      	add	r8, r1
    8dc2:	f812 8008 	ldrb.w	r8, [r2, r8]
    8dc6:	fb1c 6c0e 	smlabb	ip, ip, lr, r6
    8dca:	f89d e044 	ldrb.w	lr, [sp, #68]	; 0x44
    8dce:	f103 060d 	add.w	r6, r3, #13
    8dd2:	fa4f f989 	sxtb.w	r9, r9
    8dd6:	b27f      	sxtb	r7, r7
    8dd8:	f006 067f 	and.w	r6, r6, #127	; 0x7f
    8ddc:	fa4f f888 	sxtb.w	r8, r8
    8de0:	440e      	add	r6, r1
    8de2:	fa4f fe8e 	sxtb.w	lr, lr
    8de6:	fb19 c707 	smlabb	r7, r9, r7, ip
    8dea:	f812 9006 	ldrb.w	r9, [r2, r6]
    8dee:	f89d c045 	ldrb.w	ip, [sp, #69]	; 0x45
    8df2:	f103 060e 	add.w	r6, r3, #14
    8df6:	f006 067f 	and.w	r6, r6, #127	; 0x7f
    8dfa:	440e      	add	r6, r1
    8dfc:	fb18 7e0e 	smlabb	lr, r8, lr, r7
    8e00:	f812 8006 	ldrb.w	r8, [r2, r6]
    8e04:	f89d 7046 	ldrb.w	r7, [sp, #70]	; 0x46
    8e08:	f103 060f 	add.w	r6, r3, #15
    8e0c:	fa4f f989 	sxtb.w	r9, r9
    8e10:	fa4f fc8c 	sxtb.w	ip, ip
    8e14:	f006 067f 	and.w	r6, r6, #127	; 0x7f
    8e18:	fa4f f888 	sxtb.w	r8, r8
    8e1c:	440e      	add	r6, r1
    8e1e:	b27f      	sxtb	r7, r7
    8e20:	5d96      	ldrb	r6, [r2, r6]
    8e22:	fb19 ec0c 	smlabb	ip, r9, ip, lr
    8e26:	f89d e047 	ldrb.w	lr, [sp, #71]	; 0x47
    8e2a:	fb18 c707 	smlabb	r7, r8, r7, ip
    8e2e:	b276      	sxtb	r6, r6
    8e30:	fa4f fe8e 	sxtb.w	lr, lr
    8e34:	fb16 760e 	smlabb	r6, r6, lr, r7
    8e38:	42a6      	cmp	r6, r4
    8e3a:	bfc8      	it	gt
    8e3c:	461d      	movgt	r5, r3
    8e3e:	42b4      	cmp	r4, r6
    8e40:	bfb8      	it	lt
    8e42:	4634      	movlt	r4, r6
    8e44:	2880      	cmp	r0, #128	; 0x80
    8e46:	f47f af19 	bne.w	8c7c <main+0x4f8>
    8e4a:	f8dd e014 	ldr.w	lr, [sp, #20]
    8e4e:	f10a 0a80 	add.w	sl, sl, #128	; 0x80
    8e52:	9b07      	ldr	r3, [sp, #28]
    8e54:	f84e 5f04 	str.w	r5, [lr, #4]!
    8e58:	459e      	cmp	lr, r3
    8e5a:	f8cd e014 	str.w	lr, [sp, #20]
    8e5e:	f47f af07 	bne.w	8c70 <main+0x4ec>
    8e62:	9c06      	ldr	r4, [sp, #24]
    8e64:	f50d 51ac 	add.w	r1, sp, #5504	; 0x1580
    8e68:	3118      	adds	r1, #24
    8e6a:	2208      	movs	r2, #8
    8e6c:	2500      	movs	r5, #0
    8e6e:	6820      	ldr	r0, [r4, #0]
    8e70:	2400      	movs	r4, #0
    8e72:	e9c1 4500 	strd	r4, r5, [r1]
    8e76:	f7ff ebea 	blx	864c <_init+0x44>
    8e7a:	2807      	cmp	r0, #7
    8e7c:	bf9c      	itt	ls
    8e7e:	2000      	movls	r0, #0
    8e80:	2100      	movls	r1, #0
    8e82:	d905      	bls.n	8e90 <main+0x70c>
    8e84:	f50d 5aac 	add.w	sl, sp, #5504	; 0x1580
    8e88:	f10a 0a18 	add.w	sl, sl, #24
    8e8c:	e9da 0100 	ldrd	r0, r1, [sl]
    8e90:	9c04      	ldr	r4, [sp, #16]
    8e92:	9d08      	ldr	r5, [sp, #32]
    8e94:	e954 2302 	ldrd	r2, r3, [r4, #-8]
    8e98:	1a82      	subs	r2, r0, r2
    8e9a:	eb61 0303 	sbc.w	r3, r1, r3
    8e9e:	42ac      	cmp	r4, r5
    8ea0:	e944 2302 	strd	r2, r3, [r4, #-8]
    8ea4:	f47f aec3 	bne.w	8c2e <main+0x4aa>
    8ea8:	f24a 0070 	movw	r0, #41072	; 0xa070
    8eac:	f20d 7574 	addw	r5, sp, #1908	; 0x774
    8eb0:	2400      	movs	r4, #0
    8eb2:	eeb4 8b00 	vmov.f64	d8, #64	; 0x40
    8eb6:	f2c0 0000 	movt	r0, #0
    8eba:	f7ff ebda 	blx	8670 <_init+0x68>
    8ebe:	2200      	movs	r2, #0
    8ec0:	f5a5 73ee 	sub.w	r3, r5, #476	; 0x1dc
    8ec4:	4611      	mov	r1, r2
    8ec6:	68d8      	ldr	r0, [r3, #12]
    8ec8:	3108      	adds	r1, #8
    8eca:	691f      	ldr	r7, [r3, #16]
    8ecc:	681e      	ldr	r6, [r3, #0]
    8ece:	f1a0 0c3c 	sub.w	ip, r0, #60	; 0x3c
    8ed2:	6898      	ldr	r0, [r3, #8]
    8ed4:	3f3c      	subs	r7, #60	; 0x3c
    8ed6:	f1bc 0f00 	cmp.w	ip, #0
    8eda:	bfb8      	it	lt
    8edc:	f1cc 0c00 	rsblt	ip, ip, #0
    8ee0:	2f00      	cmp	r7, #0
    8ee2:	f1a6 0e3c 	sub.w	lr, r6, #60	; 0x3c
    8ee6:	bfb8      	it	lt
    8ee8:	427f      	neglt	r7, r7
    8eea:	685e      	ldr	r6, [r3, #4]
    8eec:	f1be 0f00 	cmp.w	lr, #0
    8ef0:	44bc      	add	ip, r7
    8ef2:	f1a0 073c 	sub.w	r7, r0, #60	; 0x3c
    8ef6:	69d8      	ldr	r0, [r3, #28]
    8ef8:	bfb8      	it	lt
    8efa:	f1ce 0e00 	rsblt	lr, lr, #0
    8efe:	2f00      	cmp	r7, #0
    8f00:	44f4      	add	ip, lr
    8f02:	bfb8      	it	lt
    8f04:	427f      	neglt	r7, r7
    8f06:	f1a6 0e3c 	sub.w	lr, r6, #60	; 0x3c
    8f0a:	699e      	ldr	r6, [r3, #24]
    8f0c:	44bc      	add	ip, r7
    8f0e:	f1a0 073c 	sub.w	r7, r0, #60	; 0x3c
    8f12:	6958      	ldr	r0, [r3, #20]
    8f14:	f1be 0f00 	cmp.w	lr, #0
    8f18:	f893 f05c 	pld	[r3, #92]	; 0x5c
    8f1c:	f1a6 063c 	sub.w	r6, r6, #60	; 0x3c
    8f20:	bfb8      	it	lt
    8f22:	f1ce 0e00 	rsblt	lr, lr, #0
    8f26:	2f00      	cmp	r7, #0
    8f28:	f1a0 003c 	sub.w	r0, r0, #60	; 0x3c
    8f2c:	bfb8      	it	lt
    8f2e:	427f      	neglt	r7, r7
    8f30:	44e6      	add	lr, ip
    8f32:	2e00      	cmp	r6, #0
    8f34:	4477      	add	r7, lr
    8f36:	bfb8      	it	lt
    8f38:	4276      	neglt	r6, r6
    8f3a:	2800      	cmp	r0, #0
    8f3c:	bfb8      	it	lt
    8f3e:	4240      	neglt	r0, r0
    8f40:	443e      	add	r6, r7
    8f42:	2978      	cmp	r1, #120	; 0x78
    8f44:	4430      	add	r0, r6
    8f46:	f103 0320 	add.w	r3, r3, #32
    8f4a:	4402      	add	r2, r0
    8f4c:	d1bb      	bne.n	8ec6 <main+0x742>
    8f4e:	f105 0020 	add.w	r0, r5, #32
    8f52:	462b      	mov	r3, r5
    8f54:	f853 1f04 	ldr.w	r1, [r3, #4]!
    8f58:	393c      	subs	r1, #60	; 0x3c
    8f5a:	2900      	cmp	r1, #0
    8f5c:	bfb8      	it	lt
    8f5e:	4249      	neglt	r1, r1
    8f60:	4283      	cmp	r3, r0
    8f62:	440a      	add	r2, r1
    8f64:	d1f6      	bne.n	8f54 <main+0x7d0>
    8f66:	ee01 4a10 	vmov	s2, r4
    8f6a:	f24a 007c 	movw	r0, #41084	; 0xa07c
    8f6e:	eeb8 7bc1 	vcvt.f64.s32	d7, s2
    8f72:	3401      	adds	r4, #1
    8f74:	eeb0 2b48 	vmov.f64	d2, d8
    8f78:	f2c0 0000 	movt	r0, #0
    8f7c:	9200      	str	r2, [sp, #0]
    8f7e:	f505 7500 	add.w	r5, r5, #512	; 0x200
    8f82:	ee07 2b08 	vmla.f64	d2, d7, d8
    8f86:	ec53 2b12 	vmov	r2, r3, d2
    8f8a:	f7ff eb54 	blx	8634 <_init+0x2c>
    8f8e:	2c08      	cmp	r4, #8
    8f90:	d195      	bne.n	8ebe <main+0x73a>
    8f92:	f8dd a018 	ldr.w	sl, [sp, #24]
    8f96:	f10d 0970 	add.w	r9, sp, #112	; 0x70
    8f9a:	2600      	movs	r6, #0
    8f9c:	2700      	movs	r7, #0
    8f9e:	f04f 0810 	mov.w	r8, #16
    8fa2:	f8da 0000 	ldr.w	r0, [sl]
    8fa6:	a90c      	add	r1, sp, #48	; 0x30
    8fa8:	2208      	movs	r2, #8
    8faa:	e9cd 670c 	strd	r6, r7, [sp, #48]	; 0x30
    8fae:	f7ff eb4e 	blx	864c <_init+0x44>
    8fb2:	2807      	cmp	r0, #7
    8fb4:	bf9c      	itt	ls
    8fb6:	2400      	movls	r4, #0
    8fb8:	2500      	movls	r5, #0
    8fba:	d901      	bls.n	8fc0 <main+0x83c>
    8fbc:	e9dd 450c 	ldrd	r4, r5, [sp, #48]	; 0x30
    8fc0:	9909      	ldr	r1, [sp, #36]	; 0x24
    8fc2:	f50d 53ac 	add.w	r3, sp, #5504	; 0x1580
    8fc6:	3318      	adds	r3, #24
    8fc8:	2280      	movs	r2, #128	; 0x80
    8fca:	6808      	ldr	r0, [r1, #0]
    8fcc:	f44f 6180 	mov.w	r1, #1024	; 0x400
    8fd0:	9301      	str	r3, [sp, #4]
    8fd2:	ab0e      	add	r3, sp, #56	; 0x38
    8fd4:	f8cd 8000 	str.w	r8, [sp]
    8fd8:	e8e9 4502 	strd	r4, r5, [r9], #8
    8fdc:	f000 fe08 	bl	9bf0 <hw_bulkcorrelate>
    8fe0:	a90c      	add	r1, sp, #48	; 0x30
    8fe2:	f8da 0000 	ldr.w	r0, [sl]
    8fe6:	2208      	movs	r2, #8
    8fe8:	e9cd 670c 	strd	r6, r7, [sp, #48]	; 0x30
    8fec:	f7ff eb2e 	blx	864c <_init+0x44>
    8ff0:	2807      	cmp	r0, #7
    8ff2:	bf9c      	itt	ls
    8ff4:	2000      	movls	r0, #0
    8ff6:	2100      	movls	r1, #0
    8ff8:	d901      	bls.n	8ffe <main+0x87a>
    8ffa:	e9dd 010c 	ldrd	r0, r1, [sp, #48]	; 0x30
    8ffe:	e959 2302 	ldrd	r2, r3, [r9, #-8]
    9002:	1a82      	subs	r2, r0, r2
    9004:	eb61 0303 	sbc.w	r3, r1, r3
    9008:	45d9      	cmp	r9, fp
    900a:	e949 2302 	strd	r2, r3, [r9, #-8]
    900e:	d1c8      	bne.n	8fa2 <main+0x81e>
    9010:	f24a 0094 	movw	r0, #41108	; 0xa094
    9014:	f50d 5cac 	add.w	ip, sp, #5504	; 0x1580
    9018:	f10c 0c18 	add.w	ip, ip, #24
    901c:	2400      	movs	r4, #0
    901e:	f2c0 0000 	movt	r0, #0
    9022:	f8cd c00c 	str.w	ip, [sp, #12]
    9026:	9408      	str	r4, [sp, #32]
    9028:	f50d 68b3 	add.w	r8, sp, #1432	; 0x598
    902c:	940a      	str	r4, [sp, #40]	; 0x28
    902e:	f7ff eb20 	blx	8670 <_init+0x68>
    9032:	f8dd c00c 	ldr.w	ip, [sp, #12]
    9036:	eeb4 8b00 	vmov.f64	d8, #64	; 0x40
    903a:	46e1      	mov	r9, ip
    903c:	2400      	movs	r4, #0
    903e:	4648      	mov	r0, r9
    9040:	4623      	mov	r3, r4
    9042:	4625      	mov	r5, r4
    9044:	4641      	mov	r1, r8
    9046:	4627      	mov	r7, r4
    9048:	f108 0640 	add.w	r6, r8, #64	; 0x40
    904c:	f109 0a40 	add.w	sl, r9, #64	; 0x40
    9050:	9607      	str	r6, [sp, #28]
    9052:	f8cd a018 	str.w	sl, [sp, #24]
    9056:	69ce      	ldr	r6, [r1, #28]
    9058:	f105 0208 	add.w	r2, r5, #8
    905c:	f1c5 0578 	rsb	r5, r5, #120	; 0x78
    9060:	3120      	adds	r1, #32
    9062:	9505      	str	r5, [sp, #20]
    9064:	3020      	adds	r0, #32
    9066:	f1a6 0a3c 	sub.w	sl, r6, #60	; 0x3c
    906a:	f851 6c08 	ldr.w	r6, [r1, #-8]
    906e:	f1ba 0f00 	cmp.w	sl, #0
    9072:	4615      	mov	r5, r2
    9074:	bfb8      	it	lt
    9076:	f1ca 0a00 	rsblt	sl, sl, #0
    907a:	f1a6 0c3c 	sub.w	ip, r6, #60	; 0x3c
    907e:	f850 6c04 	ldr.w	r6, [r0, #-4]
    9082:	f1bc 0f00 	cmp.w	ip, #0
    9086:	bfb8      	it	lt
    9088:	f1cc 0c00 	rsblt	ip, ip, #0
    908c:	f1a6 0b3c 	sub.w	fp, r6, #60	; 0x3c
    9090:	f850 6c08 	ldr.w	r6, [r0, #-8]
    9094:	f1bb 0f00 	cmp.w	fp, #0
    9098:	44d4      	add	ip, sl
    909a:	bfb8      	it	lt
    909c:	f1cb 0b00 	rsblt	fp, fp, #0
    90a0:	3e3c      	subs	r6, #60	; 0x3c
    90a2:	ea86 7ee6 	eor.w	lr, r6, r6, asr #31
    90a6:	ebae 7ee6 	sub.w	lr, lr, r6, asr #31
    90aa:	9e07      	ldr	r6, [sp, #28]
    90ac:	44f3      	add	fp, lr
    90ae:	f8dd e018 	ldr.w	lr, [sp, #24]
    90b2:	f816 f004 	pld	[r6, r4]
    90b6:	f858 6004 	ldr.w	r6, [r8, r4]
    90ba:	f81e f004 	pld	[lr, r4]
    90be:	f1a6 0a3c 	sub.w	sl, r6, #60	; 0x3c
    90c2:	f859 6004 	ldr.w	r6, [r9, r4]
    90c6:	f1ba 0f00 	cmp.w	sl, #0
    90ca:	f104 0420 	add.w	r4, r4, #32
    90ce:	bfb8      	it	lt
    90d0:	f1ca 0a00 	rsblt	sl, sl, #0
    90d4:	3e3c      	subs	r6, #60	; 0x3c
    90d6:	44d4      	add	ip, sl
    90d8:	ea86 7ee6 	eor.w	lr, r6, r6, asr #31
    90dc:	ebae 7ee6 	sub.w	lr, lr, r6, asr #31
    90e0:	f851 6c0c 	ldr.w	r6, [r1, #-12]
    90e4:	44f3      	add	fp, lr
    90e6:	f1a6 0a3c 	sub.w	sl, r6, #60	; 0x3c
    90ea:	f850 6c0c 	ldr.w	r6, [r0, #-12]
    90ee:	f1ba 0f00 	cmp.w	sl, #0
    90f2:	bfb8      	it	lt
    90f4:	f1ca 0a00 	rsblt	sl, sl, #0
    90f8:	3e3c      	subs	r6, #60	; 0x3c
    90fa:	44d4      	add	ip, sl
    90fc:	ea86 7ee6 	eor.w	lr, r6, r6, asr #31
    9100:	ebae 7ee6 	sub.w	lr, lr, r6, asr #31
    9104:	f851 6c10 	ldr.w	r6, [r1, #-16]
    9108:	44f3      	add	fp, lr
    910a:	f1a6 0a3c 	sub.w	sl, r6, #60	; 0x3c
    910e:	f850 6c10 	ldr.w	r6, [r0, #-16]
    9112:	f1ba 0f00 	cmp.w	sl, #0
    9116:	bfb8      	it	lt
    9118:	f1ca 0a00 	rsblt	sl, sl, #0
    911c:	3e3c      	subs	r6, #60	; 0x3c
    911e:	44d4      	add	ip, sl
    9120:	ea86 7ee6 	eor.w	lr, r6, r6, asr #31
    9124:	ebae 7ee6 	sub.w	lr, lr, r6, asr #31
    9128:	f851 6c14 	ldr.w	r6, [r1, #-20]
    912c:	44f3      	add	fp, lr
    912e:	f1a6 0a3c 	sub.w	sl, r6, #60	; 0x3c
    9132:	f850 6c14 	ldr.w	r6, [r0, #-20]
    9136:	f1ba 0f00 	cmp.w	sl, #0
    913a:	bfb8      	it	lt
    913c:	f1ca 0a00 	rsblt	sl, sl, #0
    9140:	3e3c      	subs	r6, #60	; 0x3c
    9142:	44d4      	add	ip, sl
    9144:	ea86 7ee6 	eor.w	lr, r6, r6, asr #31
    9148:	ebae 7ee6 	sub.w	lr, lr, r6, asr #31
    914c:	f851 6c18 	ldr.w	r6, [r1, #-24]
    9150:	44f3      	add	fp, lr
    9152:	f1a6 0a3c 	sub.w	sl, r6, #60	; 0x3c
    9156:	f850 6c18 	ldr.w	r6, [r0, #-24]
    915a:	f1ba 0f00 	cmp.w	sl, #0
    915e:	bfb8      	it	lt
    9160:	f1ca 0a00 	rsblt	sl, sl, #0
    9164:	3e3c      	subs	r6, #60	; 0x3c
    9166:	44d4      	add	ip, sl
    9168:	46b6      	mov	lr, r6
    916a:	9604      	str	r6, [sp, #16]
    916c:	ea86 76e6 	eor.w	r6, r6, r6, asr #31
    9170:	f851 ac1c 	ldr.w	sl, [r1, #-28]
    9174:	eba6 76ee 	sub.w	r6, r6, lr, asr #31
    9178:	f1aa 0a3c 	sub.w	sl, sl, #60	; 0x3c
    917c:	445e      	add	r6, fp
    917e:	f850 bc1c 	ldr.w	fp, [r0, #-28]
    9182:	f1ba 0f00 	cmp.w	sl, #0
    9186:	bfb8      	it	lt
    9188:	f1ca 0a00 	rsblt	sl, sl, #0
    918c:	f1ab 0b3c 	sub.w	fp, fp, #60	; 0x3c
    9190:	44d4      	add	ip, sl
    9192:	f1bb 0f00 	cmp.w	fp, #0
    9196:	4467      	add	r7, ip
    9198:	bfb8      	it	lt
    919a:	f1cb 0b00 	rsblt	fp, fp, #0
    919e:	2a78      	cmp	r2, #120	; 0x78
    91a0:	445e      	add	r6, fp
    91a2:	4433      	add	r3, r6
    91a4:	f47f af57 	bne.w	9056 <main+0x8d2>
    91a8:	f8dd e014 	ldr.w	lr, [sp, #20]
    91ac:	463a      	mov	r2, r7
    91ae:	2100      	movs	r1, #0
    91b0:	f508 76f0 	add.w	r6, r8, #480	; 0x1e0
    91b4:	f509 75f0 	add.w	r5, r9, #480	; 0x1e0
    91b8:	ea4f 0e8e 	mov.w	lr, lr, lsl #2
    91bc:	5874      	ldr	r4, [r6, r1]
    91be:	5868      	ldr	r0, [r5, r1]
    91c0:	3104      	adds	r1, #4
    91c2:	3c3c      	subs	r4, #60	; 0x3c
    91c4:	383c      	subs	r0, #60	; 0x3c
    91c6:	2c00      	cmp	r4, #0
    91c8:	bfb8      	it	lt
    91ca:	4264      	neglt	r4, r4
    91cc:	2800      	cmp	r0, #0
    91ce:	bfb8      	it	lt
    91d0:	4240      	neglt	r0, r0
    91d2:	4571      	cmp	r1, lr
    91d4:	4422      	add	r2, r4
    91d6:	4403      	add	r3, r0
    91d8:	d1f0      	bne.n	91bc <main+0xa38>
    91da:	ed9d 1a0a 	vldr	s2, [sp, #40]	; 0x28
    91de:	1ad2      	subs	r2, r2, r3
    91e0:	ea82 71e2 	eor.w	r1, r2, r2, asr #31
    91e4:	f24a 00a0 	movw	r0, #41120	; 0xa0a0
    91e8:	9300      	str	r3, [sp, #0]
    91ea:	f2c0 0000 	movt	r0, #0
    91ee:	eba1 71e2 	sub.w	r1, r1, r2, asr #31
    91f2:	f508 7800 	add.w	r8, r8, #512	; 0x200
    91f6:	eeb8 7bc1 	vcvt.f64.s32	d7, s2
    91fa:	f509 7900 	add.w	r9, r9, #512	; 0x200
    91fe:	ee11 4a10 	vmov	r4, s2
    9202:	eeb0 1b48 	vmov.f64	d1, d8
    9206:	3401      	adds	r4, #1
    9208:	940a      	str	r4, [sp, #40]	; 0x28
    920a:	ee07 1b08 	vmla.f64	d1, d7, d8
    920e:	9c08      	ldr	r4, [sp, #32]
    9210:	9101      	str	r1, [sp, #4]
    9212:	440c      	add	r4, r1
    9214:	9408      	str	r4, [sp, #32]
    9216:	ec53 2b11 	vmov	r2, r3, d1
    921a:	f7ff ea0c 	blx	8634 <_init+0x2c>
    921e:	9d0a      	ldr	r5, [sp, #40]	; 0x28
    9220:	2d08      	cmp	r5, #8
    9222:	f47f af0b 	bne.w	903c <main+0x8b8>
    9226:	f24a 00c4 	movw	r0, #41156	; 0xa0c4
    922a:	9908      	ldr	r1, [sp, #32]
    922c:	f2c0 0000 	movt	r0, #0
    9230:	f7ff ea00 	blx	8634 <_init+0x2c>
    9234:	9c08      	ldr	r4, [sp, #32]
    9236:	f5b4 6f80 	cmp.w	r4, #1024	; 0x400
    923a:	bf35      	itete	cc
    923c:	f24a 00d8 	movwcc	r0, #41176	; 0xa0d8
    9240:	f24a 00ec 	movwcs	r0, #41196	; 0xa0ec
    9244:	f2c0 0000 	movtcc	r0, #0
    9248:	f2c0 0000 	movtcs	r0, #0
    924c:	f7ff ea10 	blx	8670 <_init+0x68>
    9250:	f249 33e9 	movw	r3, #37865	; 0x93e9
    9254:	2105      	movs	r1, #5
    9256:	a812      	add	r0, sp, #72	; 0x48
    9258:	f2c0 0300 	movt	r3, #0
    925c:	2208      	movs	r2, #8
    925e:	f7ff ea52 	blx	8704 <_init+0xfc>
    9262:	f24a 1000 	movw	r0, #41216	; 0xa100
    9266:	e9dd 2316 	ldrd	r2, r3, [sp, #88]	; 0x58
    926a:	f2c0 0000 	movt	r0, #0
    926e:	f7ff e9e2 	blx	8634 <_init+0x2c>
    9272:	f249 33e9 	movw	r3, #37865	; 0x93e9
    9276:	2105      	movs	r1, #5
    9278:	a81c      	add	r0, sp, #112	; 0x70
    927a:	f2c0 0300 	movt	r3, #0
    927e:	2208      	movs	r2, #8
    9280:	f7ff ea40 	blx	8704 <_init+0xfc>
    9284:	f24a 1020 	movw	r0, #41248	; 0xa120
    9288:	e9dd 2320 	ldrd	r2, r3, [sp, #128]	; 0x80
    928c:	f2c0 0000 	movt	r0, #0
    9290:	f7ff e9d0 	blx	8634 <_init+0x2c>
    9294:	9d09      	ldr	r5, [sp, #36]	; 0x24
    9296:	f44f 3100 	mov.w	r1, #131072	; 0x20000
    929a:	6828      	ldr	r0, [r5, #0]
    929c:	f7ff ea2c 	blx	86f8 <_init+0xf0>
    92a0:	4604      	mov	r4, r0
    92a2:	b990      	cbnz	r0, 92ca <main+0xb46>
    92a4:	980b      	ldr	r0, [sp, #44]	; 0x2c
    92a6:	f7ff ea3c 	blx	8720 <_init+0x118>
    92aa:	4620      	mov	r0, r4
    92ac:	f50d 5d16 	add.w	sp, sp, #9600	; 0x2580
    92b0:	b007      	add	sp, #28
    92b2:	ecbd 8b10 	vpop	{d8-d15}
    92b6:	e8bd 8ff0 	ldmia.w	sp!, {r4, r5, r6, r7, r8, r9, sl, fp, pc}
    92ba:	f24a 0010 	movw	r0, #40976	; 0xa010
    92be:	2401      	movs	r4, #1
    92c0:	f2c0 0000 	movt	r0, #0
    92c4:	f7ff e9d4 	blx	8670 <_init+0x68>
    92c8:	e7ef      	b.n	92aa <main+0xb26>
    92ca:	f24a 1044 	movw	r0, #41284	; 0xa144
    92ce:	2401      	movs	r4, #1
    92d0:	f2c0 0000 	movt	r0, #0
    92d4:	f7ff e9cc 	blx	8670 <_init+0x68>
    92d8:	980b      	ldr	r0, [sp, #44]	; 0x2c
    92da:	f7ff ea22 	blx	8720 <_init+0x118>
    92de:	e7e4      	b.n	92aa <main+0xb26>
    92e0:	f24a 004c 	movw	r0, #41036	; 0xa04c
    92e4:	2401      	movs	r4, #1
    92e6:	f2c0 0000 	movt	r0, #0
    92ea:	f7ff e9c2 	blx	8670 <_init+0x68>
    92ee:	e7dc      	b.n	92aa <main+0xb26>
    92f0:	f24a 0034 	movw	r0, #41012	; 0xa034
    92f4:	2401      	movs	r4, #1
    92f6:	f2c0 0000 	movt	r0, #0
    92fa:	f7ff e9ba 	blx	8670 <_init+0x68>
    92fe:	980b      	ldr	r0, [sp, #44]	; 0x2c
    9300:	f7ff ea0e 	blx	8720 <_init+0x118>
    9304:	e7d1      	b.n	92aa <main+0xb26>
    9306:	bf00      	nop

00009308 <_start>:
    9308:	f04f 0b00 	mov.w	fp, #0
    930c:	f04f 0e00 	mov.w	lr, #0
    9310:	bc02      	pop	{r1}
    9312:	466a      	mov	r2, sp
    9314:	b404      	push	{r2}
    9316:	b401      	push	{r0}
    9318:	f8df c010 	ldr.w	ip, [pc, #16]	; 932c <_start+0x24>
    931c:	f84d cd04 	str.w	ip, [sp, #-4]!
    9320:	4803      	ldr	r0, [pc, #12]	; (9330 <_start+0x28>)
    9322:	4b04      	ldr	r3, [pc, #16]	; (9334 <_start+0x2c>)
    9324:	f7ff e9aa 	blx	867c <_init+0x74>
    9328:	f7ff e9f2 	blx	8710 <_init+0x108>
    932c:	00009fc5 	andeq	r9, r0, r5, asr #31
    9330:	00008785 	andeq	r8, r0, r5, lsl #15
    9334:	00009f85 	andeq	r9, r0, r5, lsl #31

00009338 <call_weak_fn>:
    9338:	e59f3014 	ldr	r3, [pc, #20]	; 9354 <call_weak_fn+0x1c>
    933c:	e59f2014 	ldr	r2, [pc, #20]	; 9358 <call_weak_fn+0x20>
    9340:	e08f3003 	add	r3, pc, r3
    9344:	e7932002 	ldr	r2, [r3, r2]
    9348:	e3520000 	cmp	r2, #0
    934c:	012fff1e 	bxeq	lr
    9350:	eafffccc 	b	8688 <_init+0x80>
    9354:	00008f28 	andeq	r8, r0, r8, lsr #30
    9358:	00000064 	andeq	r0, r0, r4, rrx

0000935c <deregister_tm_clones>:
    935c:	4b07      	ldr	r3, [pc, #28]	; (937c <deregister_tm_clones+0x20>)
    935e:	f242 20e4 	movw	r0, #8932	; 0x22e4
    9362:	f2c0 0001 	movt	r0, #1
    9366:	1a1b      	subs	r3, r3, r0
    9368:	2b06      	cmp	r3, #6
    936a:	d800      	bhi.n	936e <deregister_tm_clones+0x12>
    936c:	4770      	bx	lr
    936e:	f240 0300 	movw	r3, #0
    9372:	f2c0 0300 	movt	r3, #0
    9376:	2b00      	cmp	r3, #0
    9378:	d0f8      	beq.n	936c <deregister_tm_clones+0x10>
    937a:	4718      	bx	r3
    937c:	000122e7 	andeq	r2, r1, r7, ror #5

00009380 <register_tm_clones>:
    9380:	f242 23e4 	movw	r3, #8932	; 0x22e4
    9384:	f242 20e4 	movw	r0, #8932	; 0x22e4
    9388:	f2c0 0301 	movt	r3, #1
    938c:	f2c0 0001 	movt	r0, #1
    9390:	1a1b      	subs	r3, r3, r0
    9392:	109b      	asrs	r3, r3, #2
    9394:	eb03 73d3 	add.w	r3, r3, r3, lsr #31
    9398:	1059      	asrs	r1, r3, #1
    939a:	d100      	bne.n	939e <register_tm_clones+0x1e>
    939c:	4770      	bx	lr
    939e:	f240 0200 	movw	r2, #0
    93a2:	f2c0 0200 	movt	r2, #0
    93a6:	2a00      	cmp	r2, #0
    93a8:	d0f8      	beq.n	939c <register_tm_clones+0x1c>
    93aa:	4710      	bx	r2

000093ac <__do_global_dtors_aux>:
    93ac:	b510      	push	{r4, lr}
    93ae:	f242 24e8 	movw	r4, #8936	; 0x22e8
    93b2:	f2c0 0401 	movt	r4, #1
    93b6:	7823      	ldrb	r3, [r4, #0]
    93b8:	b91b      	cbnz	r3, 93c2 <__do_global_dtors_aux+0x16>
    93ba:	f7ff ffcf 	bl	935c <deregister_tm_clones>
    93be:	2301      	movs	r3, #1
    93c0:	7023      	strb	r3, [r4, #0]
    93c2:	bd10      	pop	{r4, pc}

000093c4 <frame_dummy>:
    93c4:	f242 107c 	movw	r0, #8572	; 0x217c
    93c8:	b508      	push	{r3, lr}
    93ca:	f2c0 0001 	movt	r0, #1
    93ce:	6803      	ldr	r3, [r0, #0]
    93d0:	b12b      	cbz	r3, 93de <frame_dummy+0x1a>
    93d2:	f240 0300 	movw	r3, #0
    93d6:	f2c0 0300 	movt	r3, #0
    93da:	b103      	cbz	r3, 93de <frame_dummy+0x1a>
    93dc:	4798      	blx	r3
    93de:	e8bd 4008 	ldmia.w	sp!, {r3, lr}
    93e2:	e7cd      	b.n	9380 <register_tm_clones>
    93e4:	0000      	movs	r0, r0
	...

000093e8 <compare_unsigned>:
    93e8:	e9d0 2300 	ldrd	r2, r3, [r0]
    93ec:	b430      	push	{r4, r5}
    93ee:	e9d1 4500 	ldrd	r4, r5, [r1]
    93f2:	429d      	cmp	r5, r3
    93f4:	bf08      	it	eq
    93f6:	4294      	cmpeq	r4, r2
    93f8:	bf34      	ite	cc
    93fa:	2001      	movcc	r0, #1
    93fc:	2000      	movcs	r0, #0
    93fe:	42ab      	cmp	r3, r5
    9400:	bf08      	it	eq
    9402:	42a2      	cmpeq	r2, r4
    9404:	bc30      	pop	{r4, r5}
    9406:	bf38      	it	cc
    9408:	3801      	subcc	r0, #1
    940a:	4770      	bx	lr

0000940c <initrng>:
    940c:	f649 70dc 	movw	r0, #40924	; 0x9fdc
    9410:	b510      	push	{r4, lr}
    9412:	2100      	movs	r1, #0
    9414:	b082      	sub	sp, #8
    9416:	f2c0 0000 	movt	r0, #0
    941a:	f7ff e93c 	blx	8694 <_init+0x8c>
    941e:	a901      	add	r1, sp, #4
    9420:	2204      	movs	r2, #4
    9422:	4604      	mov	r4, r0
    9424:	f7ff e912 	blx	864c <_init+0x44>
    9428:	9801      	ldr	r0, [sp, #4]
    942a:	f7ff e94c 	blx	86c4 <_init+0xbc>
    942e:	4620      	mov	r0, r4
    9430:	f7ff e976 	blx	8720 <_init+0x118>
    9434:	b002      	add	sp, #8
    9436:	bd10      	pop	{r4, pc}

00009438 <gensin>:
    9438:	e92d 43f8 	stmdb	sp!, {r3, r4, r5, r6, r7, r8, r9, lr}
    943c:	460f      	mov	r7, r1
    943e:	ed2d 8b04 	vpush	{d8-d9}
    9442:	2900      	cmp	r1, #0
    9444:	d060      	beq.n	9508 <gensin+0xd0>
    9446:	2904      	cmp	r1, #4
    9448:	ee06 1a90 	vmov	s13, r1
    944c:	4681      	mov	r9, r0
    944e:	eeb8 8b66 	vcvt.f64.u32	d8, s13
    9452:	f1a1 0803 	sub.w	r8, r1, #3
    9456:	d955      	bls.n	9504 <gensin+0xcc>
    9458:	ed9f 9b33 	vldr	d9, [pc, #204]	; 9528 <gensin+0xf0>
    945c:	f100 0538 	add.w	r5, r0, #56	; 0x38
    9460:	2601      	movs	r6, #1
    9462:	2400      	movs	r4, #0
    9464:	ee07 4a90 	vmov	s15, r4
    9468:	eeb8 0be7 	vcvt.f64.s32	d0, s15
    946c:	f895 f000 	pld	[r5]
    9470:	3520      	adds	r5, #32
    9472:	ee20 0b09 	vmul.f64	d0, d0, d9
    9476:	ee80 0b08 	vdiv.f64	d0, d0, d8
    947a:	f7ff e918 	blx	86ac <_init+0xa4>
    947e:	ee06 6a90 	vmov	s13, r6
    9482:	3604      	adds	r6, #4
    9484:	eeb8 7be6 	vcvt.f64.s32	d7, s13
    9488:	ed05 0b16 	vstr	d0, [r5, #-88]	; 0xffffffa8
    948c:	ee27 0b09 	vmul.f64	d0, d7, d9
    9490:	ee80 0b08 	vdiv.f64	d0, d0, d8
    9494:	f7ff e90a 	blx	86ac <_init+0xa4>
    9498:	1ca3      	adds	r3, r4, #2
    949a:	ed05 0b14 	vstr	d0, [r5, #-80]	; 0xffffffb0
    949e:	ee07 3a90 	vmov	s15, r3
    94a2:	eeb8 0be7 	vcvt.f64.s32	d0, s15
    94a6:	ee20 0b09 	vmul.f64	d0, d0, d9
    94aa:	ee80 0b08 	vdiv.f64	d0, d0, d8
    94ae:	f7ff e8fe 	blx	86ac <_init+0xa4>
    94b2:	1ce3      	adds	r3, r4, #3
    94b4:	ed05 0b12 	vstr	d0, [r5, #-72]	; 0xffffffb8
    94b8:	3404      	adds	r4, #4
    94ba:	ee06 3a90 	vmov	s13, r3
    94be:	eeb8 0be6 	vcvt.f64.s32	d0, s13
    94c2:	ee20 0b09 	vmul.f64	d0, d0, d9
    94c6:	ee80 0b08 	vdiv.f64	d0, d0, d8
    94ca:	f7ff e8f0 	blx	86ac <_init+0xa4>
    94ce:	45b0      	cmp	r8, r6
    94d0:	ed05 0b10 	vstr	d0, [r5, #-64]	; 0xffffffc0
    94d4:	d8c6      	bhi.n	9464 <gensin+0x2c>
    94d6:	ed9f 9b14 	vldr	d9, [pc, #80]	; 9528 <gensin+0xf0>
    94da:	eb09 05c4 	add.w	r5, r9, r4, lsl #3
    94de:	ee07 4a90 	vmov	s15, r4
    94e2:	3401      	adds	r4, #1
    94e4:	eeb8 0b67 	vcvt.f64.u32	d0, s15
    94e8:	ee20 0b09 	vmul.f64	d0, d0, d9
    94ec:	ee80 0b08 	vdiv.f64	d0, d0, d8
    94f0:	f7ff e8dc 	blx	86ac <_init+0xa4>
    94f4:	42a7      	cmp	r7, r4
    94f6:	eca5 0b02 	vstmia	r5!, {d0}
    94fa:	d8f0      	bhi.n	94de <gensin+0xa6>
    94fc:	ecbd 8b04 	vpop	{d8-d9}
    9500:	e8bd 83f8 	ldmia.w	sp!, {r3, r4, r5, r6, r7, r8, r9, pc}
    9504:	2400      	movs	r4, #0
    9506:	e7e6      	b.n	94d6 <gensin+0x9e>
    9508:	f649 70e8 	movw	r0, #40936	; 0x9fe8
    950c:	f649 71f0 	movw	r1, #40944	; 0x9ff0
    9510:	f649 73d4 	movw	r3, #40916	; 0x9fd4
    9514:	f2c0 0000 	movt	r0, #0
    9518:	f2c0 0100 	movt	r1, #0
    951c:	f2c0 0300 	movt	r3, #0
    9520:	223b      	movs	r2, #59	; 0x3b
    9522:	f7ff e904 	blx	872c <_init+0x124>
    9526:	bf00      	nop
    9528:	54442d18 	strbpl	r2, [r4], #-3352	; 0xd18
    952c:	401921fb 			; <UNDEFINED> instruction: 0x401921fb

00009530 <gennoise>:
    9530:	e92d 43f8 	stmdb	sp!, {r3, r4, r5, r6, r7, r8, r9, lr}
    9534:	460f      	mov	r7, r1
    9536:	ed2d 8b06 	vpush	{d8-d10}
    953a:	2900      	cmp	r1, #0
    953c:	d06e      	beq.n	961c <gennoise+0xec>
    953e:	2904      	cmp	r1, #4
    9540:	4681      	mov	r9, r0
    9542:	eeb0 8b40 	vmov.f64	d8, d0
    9546:	f1a1 0803 	sub.w	r8, r1, #3
    954a:	d96b      	bls.n	9624 <gennoise+0xf4>
    954c:	ed9f ab36 	vldr	d10, [pc, #216]	; 9628 <gennoise+0xf8>
    9550:	f100 0538 	add.w	r5, r0, #56	; 0x38
    9554:	2600      	movs	r6, #0
    9556:	eeb7 9b00 	vmov.f64	d9, #112	; 0x70
    955a:	f7ff e8c0 	blx	86dc <_init+0xd4>
    955e:	ee06 0a90 	vmov	s13, r0
    9562:	1d34      	adds	r4, r6, #4
    9564:	eeb8 7be6 	vcvt.f64.s32	d7, s13
    9568:	f895 f000 	pld	[r5]
    956c:	3520      	adds	r5, #32
    956e:	ee37 7b07 	vadd.f64	d7, d7, d7
    9572:	ee87 7b0a 	vdiv.f64	d7, d7, d10
    9576:	ee37 7b49 	vsub.f64	d7, d7, d9
    957a:	ee27 7b08 	vmul.f64	d7, d7, d8
    957e:	ed05 7b16 	vstr	d7, [r5, #-88]	; 0xffffffa8
    9582:	f7ff e8ac 	blx	86dc <_init+0xd4>
    9586:	ee06 0a90 	vmov	s13, r0
    958a:	eeb8 7be6 	vcvt.f64.s32	d7, s13
    958e:	ee37 7b07 	vadd.f64	d7, d7, d7
    9592:	ee87 7b0a 	vdiv.f64	d7, d7, d10
    9596:	ee37 7b49 	vsub.f64	d7, d7, d9
    959a:	ee27 7b08 	vmul.f64	d7, d7, d8
    959e:	ed05 7b14 	vstr	d7, [r5, #-80]	; 0xffffffb0
    95a2:	f7ff e89c 	blx	86dc <_init+0xd4>
    95a6:	ee06 0a90 	vmov	s13, r0
    95aa:	eeb8 7be6 	vcvt.f64.s32	d7, s13
    95ae:	ee37 7b07 	vadd.f64	d7, d7, d7
    95b2:	ee87 7b0a 	vdiv.f64	d7, d7, d10
    95b6:	ee37 7b49 	vsub.f64	d7, d7, d9
    95ba:	ee27 7b08 	vmul.f64	d7, d7, d8
    95be:	ed05 7b12 	vstr	d7, [r5, #-72]	; 0xffffffb8
    95c2:	f7ff e88c 	blx	86dc <_init+0xd4>
    95c6:	ee06 0a90 	vmov	s13, r0
    95ca:	1d73      	adds	r3, r6, #5
    95cc:	eeb8 7be6 	vcvt.f64.s32	d7, s13
    95d0:	4598      	cmp	r8, r3
    95d2:	4626      	mov	r6, r4
    95d4:	ee37 7b07 	vadd.f64	d7, d7, d7
    95d8:	ee87 7b0a 	vdiv.f64	d7, d7, d10
    95dc:	ee37 7b49 	vsub.f64	d7, d7, d9
    95e0:	ee27 7b08 	vmul.f64	d7, d7, d8
    95e4:	ed05 7b10 	vstr	d7, [r5, #-64]	; 0xffffffc0
    95e8:	d8b7      	bhi.n	955a <gennoise+0x2a>
    95ea:	ed9f ab0f 	vldr	d10, [pc, #60]	; 9628 <gennoise+0xf8>
    95ee:	eb09 05c4 	add.w	r5, r9, r4, lsl #3
    95f2:	eeb7 9b00 	vmov.f64	d9, #112	; 0x70
    95f6:	f7ff e872 	blx	86dc <_init+0xd4>
    95fa:	ee06 0a90 	vmov	s13, r0
    95fe:	3401      	adds	r4, #1
    9600:	eeb8 7be6 	vcvt.f64.s32	d7, s13
    9604:	42a7      	cmp	r7, r4
    9606:	ee37 7b07 	vadd.f64	d7, d7, d7
    960a:	ee87 7b0a 	vdiv.f64	d7, d7, d10
    960e:	ee37 7b49 	vsub.f64	d7, d7, d9
    9612:	ee27 7b08 	vmul.f64	d7, d7, d8
    9616:	eca5 7b02 	vstmia	r5!, {d7}
    961a:	d8ec      	bhi.n	95f6 <gennoise+0xc6>
    961c:	ecbd 8b06 	vpop	{d8-d10}
    9620:	e8bd 83f8 	ldmia.w	sp!, {r3, r4, r5, r6, r7, r8, r9, pc}
    9624:	2400      	movs	r4, #0
    9626:	e7e0      	b.n	95ea <gennoise+0xba>
    9628:	ffc00000 			; <UNDEFINED> instruction: 0xffc00000
    962c:	41dfffff 	ldrshmi	pc, [pc, #255]	; 9733 <buildsignal+0x103>	; <UNPREDICTABLE>

00009630 <buildsignal>:
    9630:	e92d 4ff0 	stmdb	sp!, {r4, r5, r6, r7, r8, r9, sl, fp, lr}
    9634:	460d      	mov	r5, r1
    9636:	ed2d 8b06 	vpush	{d8-d10}
    963a:	b083      	sub	sp, #12
    963c:	4606      	mov	r6, r0
    963e:	4698      	mov	r8, r3
    9640:	9201      	str	r2, [sp, #4]
    9642:	9f12      	ldr	r7, [sp, #72]	; 0x48
    9644:	2900      	cmp	r1, #0
    9646:	d072      	beq.n	972e <buildsignal+0xfe>
    9648:	2904      	cmp	r1, #4
    964a:	eeb0 8b40 	vmov.f64	d8, d0
    964e:	f1a1 0b03 	sub.w	fp, r1, #3
    9652:	f240 80dc 	bls.w	980e <buildsignal+0x1de>
    9656:	ed9f ab70 	vldr	d10, [pc, #448]	; 9818 <buildsignal+0x1e8>
    965a:	f100 0a38 	add.w	sl, r0, #56	; 0x38
    965e:	f04f 0900 	mov.w	r9, #0
    9662:	eeb7 9b00 	vmov.f64	d9, #112	; 0x70
    9666:	f7ff e83a 	blx	86dc <_init+0xd4>
    966a:	ee06 0a90 	vmov	s13, r0
    966e:	f109 0404 	add.w	r4, r9, #4
    9672:	eeb8 7be6 	vcvt.f64.s32	d7, s13
    9676:	f89a f000 	pld	[sl]
    967a:	f10a 0a20 	add.w	sl, sl, #32
    967e:	ee37 7b07 	vadd.f64	d7, d7, d7
    9682:	ee87 7b0a 	vdiv.f64	d7, d7, d10
    9686:	ee37 7b49 	vsub.f64	d7, d7, d9
    968a:	ee28 7b07 	vmul.f64	d7, d8, d7
    968e:	ed0a 7b16 	vstr	d7, [sl, #-88]	; 0xffffffa8
    9692:	f7ff e824 	blx	86dc <_init+0xd4>
    9696:	ee06 0a90 	vmov	s13, r0
    969a:	eeb8 7be6 	vcvt.f64.s32	d7, s13
    969e:	ee37 7b07 	vadd.f64	d7, d7, d7
    96a2:	ee87 7b0a 	vdiv.f64	d7, d7, d10
    96a6:	ee37 7b49 	vsub.f64	d7, d7, d9
    96aa:	ee28 7b07 	vmul.f64	d7, d8, d7
    96ae:	ed0a 7b14 	vstr	d7, [sl, #-80]	; 0xffffffb0
    96b2:	f7ff e814 	blx	86dc <_init+0xd4>
    96b6:	ee06 0a90 	vmov	s13, r0
    96ba:	eeb8 7be6 	vcvt.f64.s32	d7, s13
    96be:	ee37 7b07 	vadd.f64	d7, d7, d7
    96c2:	ee87 7b0a 	vdiv.f64	d7, d7, d10
    96c6:	ee37 7b49 	vsub.f64	d7, d7, d9
    96ca:	ee28 7b07 	vmul.f64	d7, d8, d7
    96ce:	ed0a 7b12 	vstr	d7, [sl, #-72]	; 0xffffffb8
    96d2:	f7ff e804 	blx	86dc <_init+0xd4>
    96d6:	ee06 0a90 	vmov	s13, r0
    96da:	f109 0205 	add.w	r2, r9, #5
    96de:	eeb8 7be6 	vcvt.f64.s32	d7, s13
    96e2:	455a      	cmp	r2, fp
    96e4:	46a1      	mov	r9, r4
    96e6:	ee37 7b07 	vadd.f64	d7, d7, d7
    96ea:	ee87 7b0a 	vdiv.f64	d7, d7, d10
    96ee:	ee37 7b49 	vsub.f64	d7, d7, d9
    96f2:	ee28 7b07 	vmul.f64	d7, d8, d7
    96f6:	ed0a 7b10 	vstr	d7, [sl, #-64]	; 0xffffffc0
    96fa:	d3b4      	bcc.n	9666 <buildsignal+0x36>
    96fc:	ed9f ab46 	vldr	d10, [pc, #280]	; 9818 <buildsignal+0x1e8>
    9700:	eb06 09c4 	add.w	r9, r6, r4, lsl #3
    9704:	eeb7 9b00 	vmov.f64	d9, #112	; 0x70
    9708:	f7fe efe8 	blx	86dc <_init+0xd4>
    970c:	ee06 0a90 	vmov	s13, r0
    9710:	3401      	adds	r4, #1
    9712:	eeb8 7be6 	vcvt.f64.s32	d7, s13
    9716:	42a5      	cmp	r5, r4
    9718:	ee37 7b07 	vadd.f64	d7, d7, d7
    971c:	ee87 7b0a 	vdiv.f64	d7, d7, d10
    9720:	ee37 7b49 	vsub.f64	d7, d7, d9
    9724:	ee28 7b07 	vmul.f64	d7, d8, d7
    9728:	eca9 7b02 	vstmia	r9!, {d7}
    972c:	d8ec      	bhi.n	9708 <buildsignal+0xd8>
    972e:	f1b8 0f00 	cmp.w	r8, #0
    9732:	d067      	beq.n	9804 <buildsignal+0x1d4>
    9734:	f1b8 0f04 	cmp.w	r8, #4
    9738:	f1a8 0903 	sub.w	r9, r8, #3
    973c:	d969      	bls.n	9812 <buildsignal+0x1e2>
    973e:	9b01      	ldr	r3, [sp, #4]
    9740:	f107 0a01 	add.w	sl, r7, #1
    9744:	f103 0b40 	add.w	fp, r3, #64	; 0x40
    9748:	f1c7 0303 	rsb	r3, r7, #3
    974c:	9300      	str	r3, [sp, #0]
    974e:	f10a 30ff 	add.w	r0, sl, #4294967295
    9752:	4629      	mov	r1, r5
    9754:	f000 fc02 	bl	9f5c <__aeabi_uidivmod>
    9758:	eb06 0ec1 	add.w	lr, r6, r1, lsl #3
    975c:	ed1b 7b10 	vldr	d7, [fp, #-64]	; 0xffffffc0
    9760:	f89b f000 	pld	[fp]
    9764:	4650      	mov	r0, sl
    9766:	ed9e 6b00 	vldr	d6, [lr]
    976a:	4629      	mov	r1, r5
    976c:	9c00      	ldr	r4, [sp, #0]
    976e:	f10b 0b20 	add.w	fp, fp, #32
    9772:	ee36 7b07 	vadd.f64	d7, d6, d7
    9776:	4454      	add	r4, sl
    9778:	ed8e 7b00 	vstr	d7, [lr]
    977c:	f000 fbee 	bl	9f5c <__aeabi_uidivmod>
    9780:	eb06 0ec1 	add.w	lr, r6, r1, lsl #3
    9784:	ed1b 7b16 	vldr	d7, [fp, #-88]	; 0xffffffa8
    9788:	f10a 0001 	add.w	r0, sl, #1
    978c:	ed9e 6b00 	vldr	d6, [lr]
    9790:	4629      	mov	r1, r5
    9792:	ee36 7b07 	vadd.f64	d7, d6, d7
    9796:	ed8e 7b00 	vstr	d7, [lr]
    979a:	f000 fbdf 	bl	9f5c <__aeabi_uidivmod>
    979e:	eb06 0ec1 	add.w	lr, r6, r1, lsl #3
    97a2:	ed1b 7b14 	vldr	d7, [fp, #-80]	; 0xffffffb0
    97a6:	f10a 0002 	add.w	r0, sl, #2
    97aa:	ed9e 6b00 	vldr	d6, [lr]
    97ae:	4629      	mov	r1, r5
    97b0:	f10a 0a04 	add.w	sl, sl, #4
    97b4:	ee36 7b07 	vadd.f64	d7, d6, d7
    97b8:	ed8e 7b00 	vstr	d7, [lr]
    97bc:	f000 fbce 	bl	9f5c <__aeabi_uidivmod>
    97c0:	eb06 01c1 	add.w	r1, r6, r1, lsl #3
    97c4:	ed1b 6b12 	vldr	d6, [fp, #-72]	; 0xffffffb8
    97c8:	ebc7 000a 	rsb	r0, r7, sl
    97cc:	ed91 7b00 	vldr	d7, [r1]
    97d0:	4581      	cmp	r9, r0
    97d2:	ee37 7b06 	vadd.f64	d7, d7, d6
    97d6:	ed81 7b00 	vstr	d7, [r1]
    97da:	d8b8      	bhi.n	974e <buildsignal+0x11e>
    97dc:	9b01      	ldr	r3, [sp, #4]
    97de:	eb03 0ac4 	add.w	sl, r3, r4, lsl #3
    97e2:	19e0      	adds	r0, r4, r7
    97e4:	4629      	mov	r1, r5
    97e6:	f000 fbb9 	bl	9f5c <__aeabi_uidivmod>
    97ea:	eb06 01c1 	add.w	r1, r6, r1, lsl #3
    97ee:	ecba 6b02 	vldmia	sl!, {d6}
    97f2:	3401      	adds	r4, #1
    97f4:	ed91 7b00 	vldr	d7, [r1]
    97f8:	45a0      	cmp	r8, r4
    97fa:	ee37 7b06 	vadd.f64	d7, d7, d6
    97fe:	ed81 7b00 	vstr	d7, [r1]
    9802:	d8ee      	bhi.n	97e2 <buildsignal+0x1b2>
    9804:	b003      	add	sp, #12
    9806:	ecbd 8b06 	vpop	{d8-d10}
    980a:	e8bd 8ff0 	ldmia.w	sp!, {r4, r5, r6, r7, r8, r9, sl, fp, pc}
    980e:	2400      	movs	r4, #0
    9810:	e774      	b.n	96fc <buildsignal+0xcc>
    9812:	2400      	movs	r4, #0
    9814:	e7e2      	b.n	97dc <buildsignal+0x1ac>
    9816:	bf00      	nop
    9818:	ffc00000 			; <UNDEFINED> instruction: 0xffc00000
    981c:	41dfffff 	ldrshmi	pc, [pc, #255]	; 9923 <scalesig+0xf>	; <UNPREDICTABLE>

00009820 <findmax>:
    9820:	2900      	cmp	r1, #0
    9822:	d074      	beq.n	990e <findmax+0xee>
    9824:	2904      	cmp	r1, #4
    9826:	e92d 41f0 	stmdb	sp!, {r4, r5, r6, r7, r8, lr}
    982a:	ed90 7b00 	vldr	d7, [r0]
    982e:	f1a1 0803 	sub.w	r8, r1, #3
    9832:	f04f 0200 	mov.w	r2, #0
    9836:	d968      	bls.n	990a <findmax+0xea>
    9838:	f100 0698 	add.w	r6, r0, #152	; 0x98
    983c:	4613      	mov	r3, r2
    983e:	f100 0418 	add.w	r4, r0, #24
    9842:	2501      	movs	r5, #1
    9844:	ed14 4b06 	vldr	d4, [r4, #-24]	; 0xffffffe8
    9848:	1c9f      	adds	r7, r3, #2
    984a:	ed14 6b04 	vldr	d6, [r4, #-16]
    984e:	f103 0e03 	add.w	lr, r3, #3
    9852:	eeb0 3bc7 	vabs.f64	d3, d7
    9856:	3420      	adds	r4, #32
    9858:	ed14 5b0a 	vldr	d5, [r4, #-40]	; 0xffffffd8
    985c:	eeb0 2bc4 	vabs.f64	d2, d4
    9860:	eeb4 2bc3 	vcmpe.f64	d2, d3
    9864:	eef1 fa10 	vmrs	APSR_nzcv, fpscr
    9868:	bfc8      	it	gt
    986a:	eeb0 7b44 	vmovgt.f64	d7, d4
    986e:	bfc8      	it	gt
    9870:	461a      	movgt	r2, r3
    9872:	eeb0 4bc7 	vabs.f64	d4, d7
    9876:	3304      	adds	r3, #4
    9878:	eeb0 3bc6 	vabs.f64	d3, d6
    987c:	eeb4 3bc4 	vcmpe.f64	d3, d4
    9880:	eef1 fa10 	vmrs	APSR_nzcv, fpscr
    9884:	bfc8      	it	gt
    9886:	eeb0 7b46 	vmovgt.f64	d7, d6
    988a:	bfd8      	it	le
    988c:	4694      	movle	ip, r2
    988e:	eeb0 4bc7 	vabs.f64	d4, d7
    9892:	bfc8      	it	gt
    9894:	46ac      	movgt	ip, r5
    9896:	ed16 6b20 	vldr	d6, [r6, #-128]	; 0xffffff80
    989a:	3504      	adds	r5, #4
    989c:	eeb0 3bc5 	vabs.f64	d3, d5
    98a0:	4672      	mov	r2, lr
    98a2:	eeb4 3bc4 	vcmpe.f64	d3, d4
    98a6:	eef1 fa10 	vmrs	APSR_nzcv, fpscr
    98aa:	bfc8      	it	gt
    98ac:	eeb0 7b45 	vmovgt.f64	d7, d5
    98b0:	bfd8      	it	le
    98b2:	4667      	movle	r7, ip
    98b4:	eeb0 5bc7 	vabs.f64	d5, d7
    98b8:	eeb0 4bc6 	vabs.f64	d4, d6
    98bc:	eeb4 4bc5 	vcmpe.f64	d4, d5
    98c0:	eef1 fa10 	vmrs	APSR_nzcv, fpscr
    98c4:	bfd8      	it	le
    98c6:	463a      	movle	r2, r7
    98c8:	bfc8      	it	gt
    98ca:	eeb0 7b46 	vmovgt.f64	d7, d6
    98ce:	4545      	cmp	r5, r8
    98d0:	f896 f000 	pld	[r6]
    98d4:	f106 0620 	add.w	r6, r6, #32
    98d8:	d3b4      	bcc.n	9844 <findmax+0x24>
    98da:	eb00 00c3 	add.w	r0, r0, r3, lsl #3
    98de:	ecb0 6b02 	vldmia	r0!, {d6}
    98e2:	eeb0 5bc7 	vabs.f64	d5, d7
    98e6:	eeb0 4bc6 	vabs.f64	d4, d6
    98ea:	eeb4 4bc5 	vcmpe.f64	d4, d5
    98ee:	eef1 fa10 	vmrs	APSR_nzcv, fpscr
    98f2:	bfc8      	it	gt
    98f4:	461a      	movgt	r2, r3
    98f6:	f103 0301 	add.w	r3, r3, #1
    98fa:	bfc8      	it	gt
    98fc:	eeb0 7b46 	vmovgt.f64	d7, d6
    9900:	428b      	cmp	r3, r1
    9902:	d3ec      	bcc.n	98de <findmax+0xbe>
    9904:	4610      	mov	r0, r2
    9906:	e8bd 81f0 	ldmia.w	sp!, {r4, r5, r6, r7, r8, pc}
    990a:	4613      	mov	r3, r2
    990c:	e7e5      	b.n	98da <findmax+0xba>
    990e:	4608      	mov	r0, r1
    9910:	4770      	bx	lr
    9912:	bf00      	nop

00009914 <scalesig>:
    9914:	e92d 4ff8 	stmdb	sp!, {r3, r4, r5, r6, r7, r8, r9, sl, fp, lr}
    9918:	460f      	mov	r7, r1
    991a:	ed2d 8b02 	vpush	{d8}
    991e:	4681      	mov	r9, r0
    9920:	4698      	mov	r8, r3
    9922:	ed90 7b00 	vldr	d7, [r0]
    9926:	2900      	cmp	r1, #0
    9928:	d057      	beq.n	99da <scalesig+0xc6>
    992a:	2904      	cmp	r1, #4
    992c:	f1a1 0003 	sub.w	r0, r1, #3
    9930:	f240 80cc 	bls.w	9acc <scalesig+0x1b8>
    9934:	f109 0518 	add.w	r5, r9, #24
    9938:	2300      	movs	r3, #0
    993a:	ed15 4b06 	vldr	d4, [r5, #-24]	; 0xffffffe8
    993e:	462e      	mov	r6, r5
    9940:	ed15 6b04 	vldr	d6, [r5, #-16]
    9944:	1d59      	adds	r1, r3, #5
    9946:	eeb0 3bc7 	vabs.f64	d3, d7
    994a:	1d1c      	adds	r4, r3, #4
    994c:	ed15 5b02 	vldr	d5, [r5, #-8]
    9950:	4623      	mov	r3, r4
    9952:	eeb0 2bc4 	vabs.f64	d2, d4
    9956:	eeb4 2bc3 	vcmpe.f64	d2, d3
    995a:	eef1 fa10 	vmrs	APSR_nzcv, fpscr
    995e:	bfc8      	it	gt
    9960:	eeb0 7b44 	vmovgt.f64	d7, d4
    9964:	eeb0 4bc7 	vabs.f64	d4, d7
    9968:	eeb0 3bc6 	vabs.f64	d3, d6
    996c:	eeb4 3bc4 	vcmpe.f64	d3, d4
    9970:	eef1 fa10 	vmrs	APSR_nzcv, fpscr
    9974:	bfc8      	it	gt
    9976:	eeb0 7b46 	vmovgt.f64	d7, d6
    997a:	eeb0 4bc7 	vabs.f64	d4, d7
    997e:	eeb0 3bc5 	vabs.f64	d3, d5
    9982:	ed96 6b00 	vldr	d6, [r6]
    9986:	eeb4 3bc4 	vcmpe.f64	d3, d4
    998a:	eef1 fa10 	vmrs	APSR_nzcv, fpscr
    998e:	bfc8      	it	gt
    9990:	eeb0 7b45 	vmovgt.f64	d7, d5
    9994:	eeb0 5bc7 	vabs.f64	d5, d7
    9998:	eeb0 4bc6 	vabs.f64	d4, d6
    999c:	eeb4 4bc5 	vcmpe.f64	d4, d5
    99a0:	eef1 fa10 	vmrs	APSR_nzcv, fpscr
    99a4:	bfc8      	it	gt
    99a6:	eeb0 7b46 	vmovgt.f64	d7, d6
    99aa:	4288      	cmp	r0, r1
    99ac:	f895 f088 	pld	[r5, #136]	; 0x88
    99b0:	f105 0520 	add.w	r5, r5, #32
    99b4:	d8c1      	bhi.n	993a <scalesig+0x26>
    99b6:	eb09 03c4 	add.w	r3, r9, r4, lsl #3
    99ba:	ecb3 6b02 	vldmia	r3!, {d6}
    99be:	3401      	adds	r4, #1
    99c0:	eeb0 5bc7 	vabs.f64	d5, d7
    99c4:	eeb0 4bc6 	vabs.f64	d4, d6
    99c8:	eeb4 4bc5 	vcmpe.f64	d4, d5
    99cc:	eef1 fa10 	vmrs	APSR_nzcv, fpscr
    99d0:	bfc8      	it	gt
    99d2:	eeb0 7b46 	vmovgt.f64	d7, d6
    99d6:	42a7      	cmp	r7, r4
    99d8:	d8ef      	bhi.n	99ba <scalesig+0xa6>
    99da:	eeb5 7bc0 	vcmpe.f64	d7, #0.0
    99de:	eef1 fa10 	vmrs	APSR_nzcv, fpscr
    99e2:	bfcb      	itete	gt
    99e4:	2301      	movgt	r3, #1
    99e6:	f04f 33ff 	movle.w	r3, #4294967295
    99ea:	fa03 f202 	lslgt.w	r2, r3, r2
    99ee:	4093      	lslle	r3, r2
    99f0:	bfc9      	itett	gt
    99f2:	f102 32ff 	addgt.w	r2, r2, #4294967295
    99f6:	ee08 3a10 	vmovle	s16, r3
    99fa:	ee06 2a90 	vmovgt	s13, r2
    99fe:	eeb8 8be6 	vcvtgt.f64.s32	d8, s13
    9a02:	bfd8      	it	le
    9a04:	eeb8 8bc8 	vcvtle.f64.s32	d8, s16
    9a08:	ee88 8b07 	vdiv.f64	d8, d8, d7
    9a0c:	2f00      	cmp	r7, #0
    9a0e:	d059      	beq.n	9ac4 <scalesig+0x1b0>
    9a10:	2f04      	cmp	r7, #4
    9a12:	f1a7 0a03 	sub.w	sl, r7, #3
    9a16:	d95b      	bls.n	9ad0 <scalesig+0x1bc>
    9a18:	f109 0640 	add.w	r6, r9, #64	; 0x40
    9a1c:	f108 0501 	add.w	r5, r8, #1
    9a20:	f1c8 0b03 	rsb	fp, r8, #3
    9a24:	ed16 0b10 	vldr	d0, [r6, #-64]	; 0xffffffc0
    9a28:	eb0b 0405 	add.w	r4, fp, r5
    9a2c:	f896 f000 	pld	[r6]
    9a30:	3504      	adds	r5, #4
    9a32:	3620      	adds	r6, #32
    9a34:	ee28 0b00 	vmul.f64	d0, d8, d0
    9a38:	f7fe ee14 	blx	8664 <_init+0x5c>
    9a3c:	eebd 0bc0 	vcvt.s32.f64	s0, d0
    9a40:	ee10 3a10 	vmov	r3, s0
    9a44:	b2db      	uxtb	r3, r3
    9a46:	f805 3c05 	strb.w	r3, [r5, #-5]
    9a4a:	ed16 0b16 	vldr	d0, [r6, #-88]	; 0xffffffa8
    9a4e:	ee28 0b00 	vmul.f64	d0, d8, d0
    9a52:	f7fe ee08 	blx	8664 <_init+0x5c>
    9a56:	eebd 0bc0 	vcvt.s32.f64	s0, d0
    9a5a:	ee10 3a10 	vmov	r3, s0
    9a5e:	b2db      	uxtb	r3, r3
    9a60:	f805 3c04 	strb.w	r3, [r5, #-4]
    9a64:	ed16 0b14 	vldr	d0, [r6, #-80]	; 0xffffffb0
    9a68:	ee28 0b00 	vmul.f64	d0, d8, d0
    9a6c:	f7fe edfa 	blx	8664 <_init+0x5c>
    9a70:	eebd 0bc0 	vcvt.s32.f64	s0, d0
    9a74:	ee10 3a10 	vmov	r3, s0
    9a78:	b2db      	uxtb	r3, r3
    9a7a:	f805 3c03 	strb.w	r3, [r5, #-3]
    9a7e:	ed16 0b12 	vldr	d0, [r6, #-72]	; 0xffffffb8
    9a82:	ee28 0b00 	vmul.f64	d0, d8, d0
    9a86:	f7fe edee 	blx	8664 <_init+0x5c>
    9a8a:	eebd 0bc0 	vcvt.s32.f64	s0, d0
    9a8e:	ee10 3a10 	vmov	r3, s0
    9a92:	b2db      	uxtb	r3, r3
    9a94:	f805 3c02 	strb.w	r3, [r5, #-2]
    9a98:	ebc8 0305 	rsb	r3, r8, r5
    9a9c:	459a      	cmp	sl, r3
    9a9e:	d8c1      	bhi.n	9a24 <scalesig+0x110>
    9aa0:	eb09 05c4 	add.w	r5, r9, r4, lsl #3
    9aa4:	ecb5 0b02 	vldmia	r5!, {d0}
    9aa8:	ee20 0b08 	vmul.f64	d0, d0, d8
    9aac:	f7fe edda 	blx	8664 <_init+0x5c>
    9ab0:	eebd 0bc0 	vcvt.s32.f64	s0, d0
    9ab4:	ee10 3a10 	vmov	r3, s0
    9ab8:	b2db      	uxtb	r3, r3
    9aba:	f808 3004 	strb.w	r3, [r8, r4]
    9abe:	3401      	adds	r4, #1
    9ac0:	42a7      	cmp	r7, r4
    9ac2:	d8ef      	bhi.n	9aa4 <scalesig+0x190>
    9ac4:	ecbd 8b02 	vpop	{d8}
    9ac8:	e8bd 8ff8 	ldmia.w	sp!, {r3, r4, r5, r6, r7, r8, r9, sl, fp, pc}
    9acc:	2400      	movs	r4, #0
    9ace:	e772      	b.n	99b6 <scalesig+0xa2>
    9ad0:	2400      	movs	r4, #0
    9ad2:	e7e5      	b.n	9aa0 <scalesig+0x18c>

00009ad4 <samplesave>:
    9ad4:	b570      	push	{r4, r5, r6, lr}
    9ad6:	460e      	mov	r6, r1
    9ad8:	f649 71fc 	movw	r1, #40956	; 0x9ffc
    9adc:	4604      	mov	r4, r0
    9ade:	f2c0 0100 	movt	r1, #0
    9ae2:	4610      	mov	r0, r2
    9ae4:	f7fe edac 	blx	8640 <_init+0x38>
    9ae8:	4605      	mov	r5, r0
    9aea:	b166      	cbz	r6, 9b06 <samplesave+0x32>
    9aec:	4426      	add	r6, r4
    9aee:	f814 2b01 	ldrb.w	r2, [r4], #1
    9af2:	f24a 0100 	movw	r1, #40960	; 0xa000
    9af6:	f2c0 0100 	movt	r1, #0
    9afa:	4628      	mov	r0, r5
    9afc:	b252      	sxtb	r2, r2
    9afe:	f7fe ede8 	blx	86d0 <_init+0xc8>
    9b02:	42b4      	cmp	r4, r6
    9b04:	d1f3      	bne.n	9aee <samplesave+0x1a>
    9b06:	4628      	mov	r0, r5
    9b08:	e8bd 4070 	ldmia.w	sp!, {r4, r5, r6, lr}
    9b0c:	f7fe bdec 	b.w	86e8 <_init+0xe0>

00009b10 <bulkcorrelate>:
    9b10:	e92d 4ff0 	stmdb	sp!, {r4, r5, r6, r7, r8, r9, sl, fp, lr}
    9b14:	b087      	sub	sp, #28
    9b16:	9302      	str	r3, [sp, #8]
    9b18:	9b11      	ldr	r3, [sp, #68]	; 0x44
    9b1a:	2900      	cmp	r1, #0
    9b1c:	d03b      	beq.n	9b96 <bulkcorrelate+0x86>
    9b1e:	eb03 0181 	add.w	r1, r3, r1, lsl #2
    9b22:	4680      	mov	r8, r0
    9b24:	4614      	mov	r4, r2
    9b26:	9304      	str	r3, [sp, #16]
    9b28:	2700      	movs	r7, #0
    9b2a:	9105      	str	r1, [sp, #20]
    9b2c:	2c00      	cmp	r4, #0
    9b2e:	d035      	beq.n	9b9c <bulkcorrelate+0x8c>
    9b30:	2200      	movs	r2, #0
    9b32:	4691      	mov	r9, r2
    9b34:	9203      	str	r2, [sp, #12]
    9b36:	9201      	str	r2, [sp, #4]
    9b38:	9b10      	ldr	r3, [sp, #64]	; 0x40
    9b3a:	b1fb      	cbz	r3, 9b7c <bulkcorrelate+0x6c>
    9b3c:	9a02      	ldr	r2, [sp, #8]
    9b3e:	461e      	mov	r6, r3
    9b40:	444e      	add	r6, r9
    9b42:	46ca      	mov	sl, r9
    9b44:	f04f 0b00 	mov.w	fp, #0
    9b48:	ebc9 0502 	rsb	r5, r9, r2
    9b4c:	4650      	mov	r0, sl
    9b4e:	4621      	mov	r1, r4
    9b50:	f000 fa04 	bl	9f5c <__aeabi_uidivmod>
    9b54:	4439      	add	r1, r7
    9b56:	f818 2001 	ldrb.w	r2, [r8, r1]
    9b5a:	f81a 3005 	ldrb.w	r3, [sl, r5]
    9b5e:	f10a 0a01 	add.w	sl, sl, #1
    9b62:	4556      	cmp	r6, sl
    9b64:	b252      	sxtb	r2, r2
    9b66:	b25b      	sxtb	r3, r3
    9b68:	fb12 bb03 	smlabb	fp, r2, r3, fp
    9b6c:	d1ee      	bne.n	9b4c <bulkcorrelate+0x3c>
    9b6e:	9a01      	ldr	r2, [sp, #4]
    9b70:	4593      	cmp	fp, r2
    9b72:	bfc4      	itt	gt
    9b74:	f8cd b004 	strgt.w	fp, [sp, #4]
    9b78:	f8cd 900c 	strgt.w	r9, [sp, #12]
    9b7c:	f109 0901 	add.w	r9, r9, #1
    9b80:	45a1      	cmp	r9, r4
    9b82:	d1d9      	bne.n	9b38 <bulkcorrelate+0x28>
    9b84:	9a04      	ldr	r2, [sp, #16]
    9b86:	4427      	add	r7, r4
    9b88:	9b03      	ldr	r3, [sp, #12]
    9b8a:	f842 3b04 	str.w	r3, [r2], #4
    9b8e:	9b05      	ldr	r3, [sp, #20]
    9b90:	9204      	str	r2, [sp, #16]
    9b92:	429a      	cmp	r2, r3
    9b94:	d1ca      	bne.n	9b2c <bulkcorrelate+0x1c>
    9b96:	b007      	add	sp, #28
    9b98:	e8bd 8ff0 	ldmia.w	sp!, {r4, r5, r6, r7, r8, r9, sl, fp, pc}
    9b9c:	9403      	str	r4, [sp, #12]
    9b9e:	e7f1      	b.n	9b84 <bulkcorrelate+0x74>

00009ba0 <dmacomplete>:
    9ba0:	4603      	mov	r3, r0
    9ba2:	6800      	ldr	r0, [r0, #0]
    9ba4:	f010 0001 	ands.w	r0, r0, #1
    9ba8:	d006      	beq.n	9bb8 <dmacomplete+0x18>
    9baa:	6999      	ldr	r1, [r3, #24]
    9bac:	2001      	movs	r0, #1
    9bae:	2200      	movs	r2, #0
    9bb0:	f021 0108 	bic.w	r1, r1, #8
    9bb4:	6199      	str	r1, [r3, #24]
    9bb6:	601a      	str	r2, [r3, #0]
    9bb8:	4770      	bx	lr
    9bba:	bf00      	nop

00009bbc <dmareset>:
    9bbc:	f44f 5380 	mov.w	r3, #4096	; 0x1000
    9bc0:	6183      	str	r3, [r0, #24]
    9bc2:	4770      	bx	lr

00009bc4 <dmacopy>:
    9bc4:	b430      	push	{r4, r5}
    9bc6:	2500      	movs	r5, #0
    9bc8:	2489      	movs	r4, #137	; 0x89
    9bca:	6005      	str	r5, [r0, #0]
    9bcc:	60c3      	str	r3, [r0, #12]
    9bce:	6041      	str	r1, [r0, #4]
    9bd0:	6082      	str	r2, [r0, #8]
    9bd2:	6184      	str	r4, [r0, #24]
    9bd4:	bc30      	pop	{r4, r5}
    9bd6:	4770      	bx	lr

00009bd8 <dmacopyconst>:
    9bd8:	b430      	push	{r4, r5}
    9bda:	2500      	movs	r5, #0
    9bdc:	f240 2489 	movw	r4, #649	; 0x289
    9be0:	6005      	str	r5, [r0, #0]
    9be2:	60c3      	str	r3, [r0, #12]
    9be4:	6041      	str	r1, [r0, #4]
    9be6:	6082      	str	r2, [r0, #8]
    9be8:	6184      	str	r4, [r0, #24]
    9bea:	bc30      	pop	{r4, r5}
    9bec:	4770      	bx	lr
    9bee:	bf00      	nop

00009bf0 <hw_bulkcorrelate>:
    9bf0:	e92d 4ff0 	stmdb	sp!, {r4, r5, r6, r7, r8, r9, sl, fp, lr}
    9bf4:	4698      	mov	r8, r3
    9bf6:	f893 e000 	ldrb.w	lr, [r3]
    9bfa:	b083      	sub	sp, #12
    9bfc:	f242 323c 	movw	r2, #9020	; 0x233c
    9c00:	2100      	movs	r1, #0
    9c02:	785c      	ldrb	r4, [r3, #1]
    9c04:	f242 3338 	movw	r3, #9016	; 0x2338
    9c08:	f898 7002 	ldrb.w	r7, [r8, #2]
    9c0c:	f2c0 0301 	movt	r3, #1
    9c10:	681b      	ldr	r3, [r3, #0]
    9c12:	f2c0 0201 	movt	r2, #1
    9c16:	f898 6003 	ldrb.w	r6, [r8, #3]
    9c1a:	460d      	mov	r5, r1
    9c1c:	eb04 2e0e 	add.w	lr, r4, lr, lsl #8
    9c20:	6810      	ldr	r0, [r2, #0]
    9c22:	9300      	str	r3, [sp, #0]
    9c24:	f04f 0c01 	mov.w	ip, #1
    9c28:	eb07 230e 	add.w	r3, r7, lr, lsl #8
    9c2c:	9c0d      	ldr	r4, [sp, #52]	; 0x34
    9c2e:	f44f 5e80 	mov.w	lr, #4096	; 0x1000
    9c32:	eb06 2603 	add.w	r6, r6, r3, lsl #8
    9c36:	f44f 3700 	mov.w	r7, #131072	; 0x20000
    9c3a:	3c04      	subs	r4, #4
    9c3c:	6046      	str	r6, [r0, #4]
    9c3e:	2380      	movs	r3, #128	; 0x80
    9c40:	f898 b004 	ldrb.w	fp, [r8, #4]
    9c44:	f240 2689 	movw	r6, #649	; 0x289
    9c48:	f898 a005 	ldrb.w	sl, [r8, #5]
    9c4c:	f898 9006 	ldrb.w	r9, [r8, #6]
    9c50:	f898 2007 	ldrb.w	r2, [r8, #7]
    9c54:	eb0a 2a0b 	add.w	sl, sl, fp, lsl #8
    9c58:	eb09 290a 	add.w	r9, r9, sl, lsl #8
    9c5c:	eb02 2909 	add.w	r9, r2, r9, lsl #8
    9c60:	f8c0 9014 	str.w	r9, [r0, #20]
    9c64:	f898 b008 	ldrb.w	fp, [r8, #8]
    9c68:	f898 a009 	ldrb.w	sl, [r8, #9]
    9c6c:	f898 900a 	ldrb.w	r9, [r8, #10]
    9c70:	f898 200b 	ldrb.w	r2, [r8, #11]
    9c74:	eb0a 2a0b 	add.w	sl, sl, fp, lsl #8
    9c78:	eb09 290a 	add.w	r9, r9, sl, lsl #8
    9c7c:	eb02 2909 	add.w	r9, r2, r9, lsl #8
    9c80:	9a00      	ldr	r2, [sp, #0]
    9c82:	f8c0 9024 	str.w	r9, [r0, #36]	; 0x24
    9c86:	f898 b00c 	ldrb.w	fp, [r8, #12]
    9c8a:	f898 a00d 	ldrb.w	sl, [r8, #13]
    9c8e:	f898 900e 	ldrb.w	r9, [r8, #14]
    9c92:	f898 800f 	ldrb.w	r8, [r8, #15]
    9c96:	eb0a 2a0b 	add.w	sl, sl, fp, lsl #8
    9c9a:	eb09 290a 	add.w	r9, r9, sl, lsl #8
    9c9e:	eb08 2809 	add.w	r8, r8, r9, lsl #8
    9ca2:	f8c0 8034 	str.w	r8, [r0, #52]	; 0x34
    9ca6:	4680      	mov	r8, r0
    9ca8:	f8c8 c05c 	str.w	ip, [r8, #92]	; 0x5c
    9cac:	f8c2 e018 	str.w	lr, [r2, #24]
    9cb0:	6015      	str	r5, [r2, #0]
    9cb2:	60d3      	str	r3, [r2, #12]
    9cb4:	6051      	str	r1, [r2, #4]
    9cb6:	6097      	str	r7, [r2, #8]
    9cb8:	6196      	str	r6, [r2, #24]
    9cba:	6810      	ldr	r0, [r2, #0]
    9cbc:	07c0      	lsls	r0, r0, #31
    9cbe:	d5fc      	bpl.n	9cba <hw_bulkcorrelate+0xca>
    9cc0:	6990      	ldr	r0, [r2, #24]
    9cc2:	3180      	adds	r1, #128	; 0x80
    9cc4:	f5b1 3f00 	cmp.w	r1, #131072	; 0x20000
    9cc8:	f020 0008 	bic.w	r0, r0, #8
    9ccc:	6190      	str	r0, [r2, #24]
    9cce:	6015      	str	r5, [r2, #0]
    9cd0:	f8d8 0054 	ldr.w	r0, [r8, #84]	; 0x54
    9cd4:	f844 0f04 	str.w	r0, [r4, #4]!
    9cd8:	d1e6      	bne.n	9ca8 <hw_bulkcorrelate+0xb8>
    9cda:	b003      	add	sp, #12
    9cdc:	e8bd 8ff0 	ldmia.w	sp!, {r4, r5, r6, r7, r8, r9, sl, fp, pc}

00009ce0 <median>:
    9ce0:	f249 33e9 	movw	r3, #37865	; 0x93e9
    9ce4:	b510      	push	{r4, lr}
    9ce6:	f2c0 0300 	movt	r3, #0
    9cea:	4604      	mov	r4, r0
    9cec:	2105      	movs	r1, #5
    9cee:	2208      	movs	r2, #8
    9cf0:	f7fe ed08 	blx	8704 <_init+0xfc>
    9cf4:	e9d4 0104 	ldrd	r0, r1, [r4, #16]
    9cf8:	bd10      	pop	{r4, pc}
    9cfa:	bf00      	nop
    9cfc:	f3af 8000 	nop.w

00009d00 <__aeabi_uidiv>:
    9d00:	1e4a      	subs	r2, r1, #1
    9d02:	bf08      	it	eq
    9d04:	4770      	bxeq	lr
    9d06:	f0c0 8124 	bcc.w	9f52 <__aeabi_uidiv+0x252>
    9d0a:	4288      	cmp	r0, r1
    9d0c:	f240 8116 	bls.w	9f3c <__aeabi_uidiv+0x23c>
    9d10:	4211      	tst	r1, r2
    9d12:	f000 8117 	beq.w	9f44 <__aeabi_uidiv+0x244>
    9d16:	fab0 f380 	clz	r3, r0
    9d1a:	fab1 f281 	clz	r2, r1
    9d1e:	eba2 0303 	sub.w	r3, r2, r3
    9d22:	f1c3 031f 	rsb	r3, r3, #31
    9d26:	a204      	add	r2, pc, #16	; (adr r2, 9d38 <__aeabi_uidiv+0x38>)
    9d28:	eb02 1303 	add.w	r3, r2, r3, lsl #4
    9d2c:	f04f 0200 	mov.w	r2, #0
    9d30:	469f      	mov	pc, r3
    9d32:	bf00      	nop
    9d34:	f3af 8000 	nop.w
    9d38:	ebb0 7fc1 	cmp.w	r0, r1, lsl #31
    9d3c:	bf00      	nop
    9d3e:	eb42 0202 	adc.w	r2, r2, r2
    9d42:	bf28      	it	cs
    9d44:	eba0 70c1 	subcs.w	r0, r0, r1, lsl #31
    9d48:	ebb0 7f81 	cmp.w	r0, r1, lsl #30
    9d4c:	bf00      	nop
    9d4e:	eb42 0202 	adc.w	r2, r2, r2
    9d52:	bf28      	it	cs
    9d54:	eba0 7081 	subcs.w	r0, r0, r1, lsl #30
    9d58:	ebb0 7f41 	cmp.w	r0, r1, lsl #29
    9d5c:	bf00      	nop
    9d5e:	eb42 0202 	adc.w	r2, r2, r2
    9d62:	bf28      	it	cs
    9d64:	eba0 7041 	subcs.w	r0, r0, r1, lsl #29
    9d68:	ebb0 7f01 	cmp.w	r0, r1, lsl #28
    9d6c:	bf00      	nop
    9d6e:	eb42 0202 	adc.w	r2, r2, r2
    9d72:	bf28      	it	cs
    9d74:	eba0 7001 	subcs.w	r0, r0, r1, lsl #28
    9d78:	ebb0 6fc1 	cmp.w	r0, r1, lsl #27
    9d7c:	bf00      	nop
    9d7e:	eb42 0202 	adc.w	r2, r2, r2
    9d82:	bf28      	it	cs
    9d84:	eba0 60c1 	subcs.w	r0, r0, r1, lsl #27
    9d88:	ebb0 6f81 	cmp.w	r0, r1, lsl #26
    9d8c:	bf00      	nop
    9d8e:	eb42 0202 	adc.w	r2, r2, r2
    9d92:	bf28      	it	cs
    9d94:	eba0 6081 	subcs.w	r0, r0, r1, lsl #26
    9d98:	ebb0 6f41 	cmp.w	r0, r1, lsl #25
    9d9c:	bf00      	nop
    9d9e:	eb42 0202 	adc.w	r2, r2, r2
    9da2:	bf28      	it	cs
    9da4:	eba0 6041 	subcs.w	r0, r0, r1, lsl #25
    9da8:	ebb0 6f01 	cmp.w	r0, r1, lsl #24
    9dac:	bf00      	nop
    9dae:	eb42 0202 	adc.w	r2, r2, r2
    9db2:	bf28      	it	cs
    9db4:	eba0 6001 	subcs.w	r0, r0, r1, lsl #24
    9db8:	ebb0 5fc1 	cmp.w	r0, r1, lsl #23
    9dbc:	bf00      	nop
    9dbe:	eb42 0202 	adc.w	r2, r2, r2
    9dc2:	bf28      	it	cs
    9dc4:	eba0 50c1 	subcs.w	r0, r0, r1, lsl #23
    9dc8:	ebb0 5f81 	cmp.w	r0, r1, lsl #22
    9dcc:	bf00      	nop
    9dce:	eb42 0202 	adc.w	r2, r2, r2
    9dd2:	bf28      	it	cs
    9dd4:	eba0 5081 	subcs.w	r0, r0, r1, lsl #22
    9dd8:	ebb0 5f41 	cmp.w	r0, r1, lsl #21
    9ddc:	bf00      	nop
    9dde:	eb42 0202 	adc.w	r2, r2, r2
    9de2:	bf28      	it	cs
    9de4:	eba0 5041 	subcs.w	r0, r0, r1, lsl #21
    9de8:	ebb0 5f01 	cmp.w	r0, r1, lsl #20
    9dec:	bf00      	nop
    9dee:	eb42 0202 	adc.w	r2, r2, r2
    9df2:	bf28      	it	cs
    9df4:	eba0 5001 	subcs.w	r0, r0, r1, lsl #20
    9df8:	ebb0 4fc1 	cmp.w	r0, r1, lsl #19
    9dfc:	bf00      	nop
    9dfe:	eb42 0202 	adc.w	r2, r2, r2
    9e02:	bf28      	it	cs
    9e04:	eba0 40c1 	subcs.w	r0, r0, r1, lsl #19
    9e08:	ebb0 4f81 	cmp.w	r0, r1, lsl #18
    9e0c:	bf00      	nop
    9e0e:	eb42 0202 	adc.w	r2, r2, r2
    9e12:	bf28      	it	cs
    9e14:	eba0 4081 	subcs.w	r0, r0, r1, lsl #18
    9e18:	ebb0 4f41 	cmp.w	r0, r1, lsl #17
    9e1c:	bf00      	nop
    9e1e:	eb42 0202 	adc.w	r2, r2, r2
    9e22:	bf28      	it	cs
    9e24:	eba0 4041 	subcs.w	r0, r0, r1, lsl #17
    9e28:	ebb0 4f01 	cmp.w	r0, r1, lsl #16
    9e2c:	bf00      	nop
    9e2e:	eb42 0202 	adc.w	r2, r2, r2
    9e32:	bf28      	it	cs
    9e34:	eba0 4001 	subcs.w	r0, r0, r1, lsl #16
    9e38:	ebb0 3fc1 	cmp.w	r0, r1, lsl #15
    9e3c:	bf00      	nop
    9e3e:	eb42 0202 	adc.w	r2, r2, r2
    9e42:	bf28      	it	cs
    9e44:	eba0 30c1 	subcs.w	r0, r0, r1, lsl #15
    9e48:	ebb0 3f81 	cmp.w	r0, r1, lsl #14
    9e4c:	bf00      	nop
    9e4e:	eb42 0202 	adc.w	r2, r2, r2
    9e52:	bf28      	it	cs
    9e54:	eba0 3081 	subcs.w	r0, r0, r1, lsl #14
    9e58:	ebb0 3f41 	cmp.w	r0, r1, lsl #13
    9e5c:	bf00      	nop
    9e5e:	eb42 0202 	adc.w	r2, r2, r2
    9e62:	bf28      	it	cs
    9e64:	eba0 3041 	subcs.w	r0, r0, r1, lsl #13
    9e68:	ebb0 3f01 	cmp.w	r0, r1, lsl #12
    9e6c:	bf00      	nop
    9e6e:	eb42 0202 	adc.w	r2, r2, r2
    9e72:	bf28      	it	cs
    9e74:	eba0 3001 	subcs.w	r0, r0, r1, lsl #12
    9e78:	ebb0 2fc1 	cmp.w	r0, r1, lsl #11
    9e7c:	bf00      	nop
    9e7e:	eb42 0202 	adc.w	r2, r2, r2
    9e82:	bf28      	it	cs
    9e84:	eba0 20c1 	subcs.w	r0, r0, r1, lsl #11
    9e88:	ebb0 2f81 	cmp.w	r0, r1, lsl #10
    9e8c:	bf00      	nop
    9e8e:	eb42 0202 	adc.w	r2, r2, r2
    9e92:	bf28      	it	cs
    9e94:	eba0 2081 	subcs.w	r0, r0, r1, lsl #10
    9e98:	ebb0 2f41 	cmp.w	r0, r1, lsl #9
    9e9c:	bf00      	nop
    9e9e:	eb42 0202 	adc.w	r2, r2, r2
    9ea2:	bf28      	it	cs
    9ea4:	eba0 2041 	subcs.w	r0, r0, r1, lsl #9
    9ea8:	ebb0 2f01 	cmp.w	r0, r1, lsl #8
    9eac:	bf00      	nop
    9eae:	eb42 0202 	adc.w	r2, r2, r2
    9eb2:	bf28      	it	cs
    9eb4:	eba0 2001 	subcs.w	r0, r0, r1, lsl #8
    9eb8:	ebb0 1fc1 	cmp.w	r0, r1, lsl #7
    9ebc:	bf00      	nop
    9ebe:	eb42 0202 	adc.w	r2, r2, r2
    9ec2:	bf28      	it	cs
    9ec4:	eba0 10c1 	subcs.w	r0, r0, r1, lsl #7
    9ec8:	ebb0 1f81 	cmp.w	r0, r1, lsl #6
    9ecc:	bf00      	nop
    9ece:	eb42 0202 	adc.w	r2, r2, r2
    9ed2:	bf28      	it	cs
    9ed4:	eba0 1081 	subcs.w	r0, r0, r1, lsl #6
    9ed8:	ebb0 1f41 	cmp.w	r0, r1, lsl #5
    9edc:	bf00      	nop
    9ede:	eb42 0202 	adc.w	r2, r2, r2
    9ee2:	bf28      	it	cs
    9ee4:	eba0 1041 	subcs.w	r0, r0, r1, lsl #5
    9ee8:	ebb0 1f01 	cmp.w	r0, r1, lsl #4
    9eec:	bf00      	nop
    9eee:	eb42 0202 	adc.w	r2, r2, r2
    9ef2:	bf28      	it	cs
    9ef4:	eba0 1001 	subcs.w	r0, r0, r1, lsl #4
    9ef8:	ebb0 0fc1 	cmp.w	r0, r1, lsl #3
    9efc:	bf00      	nop
    9efe:	eb42 0202 	adc.w	r2, r2, r2
    9f02:	bf28      	it	cs
    9f04:	eba0 00c1 	subcs.w	r0, r0, r1, lsl #3
    9f08:	ebb0 0f81 	cmp.w	r0, r1, lsl #2
    9f0c:	bf00      	nop
    9f0e:	eb42 0202 	adc.w	r2, r2, r2
    9f12:	bf28      	it	cs
    9f14:	eba0 0081 	subcs.w	r0, r0, r1, lsl #2
    9f18:	ebb0 0f41 	cmp.w	r0, r1, lsl #1
    9f1c:	bf00      	nop
    9f1e:	eb42 0202 	adc.w	r2, r2, r2
    9f22:	bf28      	it	cs
    9f24:	eba0 0041 	subcs.w	r0, r0, r1, lsl #1
    9f28:	ebb0 0f01 	cmp.w	r0, r1
    9f2c:	bf00      	nop
    9f2e:	eb42 0202 	adc.w	r2, r2, r2
    9f32:	bf28      	it	cs
    9f34:	eba0 0001 	subcs.w	r0, r0, r1
    9f38:	4610      	mov	r0, r2
    9f3a:	4770      	bx	lr
    9f3c:	bf0c      	ite	eq
    9f3e:	2001      	moveq	r0, #1
    9f40:	2000      	movne	r0, #0
    9f42:	4770      	bx	lr
    9f44:	fab1 f281 	clz	r2, r1
    9f48:	f1c2 021f 	rsb	r2, r2, #31
    9f4c:	fa20 f002 	lsr.w	r0, r0, r2
    9f50:	4770      	bx	lr
    9f52:	b108      	cbz	r0, 9f58 <__aeabi_uidiv+0x258>
    9f54:	f04f 30ff 	mov.w	r0, #4294967295
    9f58:	f000 b80e 	b.w	9f78 <__aeabi_idiv0>

00009f5c <__aeabi_uidivmod>:
    9f5c:	2900      	cmp	r1, #0
    9f5e:	d0f8      	beq.n	9f52 <__aeabi_uidiv+0x252>
    9f60:	e92d 4003 	stmdb	sp!, {r0, r1, lr}
    9f64:	f7ff fecc 	bl	9d00 <__aeabi_uidiv>
    9f68:	e8bd 4006 	ldmia.w	sp!, {r1, r2, lr}
    9f6c:	fb02 f300 	mul.w	r3, r2, r0
    9f70:	eba1 0103 	sub.w	r1, r1, r3
    9f74:	4770      	bx	lr
    9f76:	bf00      	nop

00009f78 <__aeabi_idiv0>:
    9f78:	b502      	push	{r1, lr}
    9f7a:	f04f 0008 	mov.w	r0, #8
    9f7e:	f7fe eb54 	blx	8628 <_init+0x20>
    9f82:	bd02      	pop	{r1, pc}

00009f84 <__libc_csu_init>:
    9f84:	e92d 43f8 	stmdb	sp!, {r3, r4, r5, r6, r7, r8, r9, lr}
    9f88:	4607      	mov	r7, r0
    9f8a:	4e0c      	ldr	r6, [pc, #48]	; (9fbc <__libc_csu_init+0x38>)
    9f8c:	4688      	mov	r8, r1
    9f8e:	4691      	mov	r9, r2
    9f90:	4d0b      	ldr	r5, [pc, #44]	; (9fc0 <__libc_csu_init+0x3c>)
    9f92:	447e      	add	r6, pc
    9f94:	f7fe eb38 	blx	8608 <_init>
    9f98:	447d      	add	r5, pc
    9f9a:	1b76      	subs	r6, r6, r5
    9f9c:	10b6      	asrs	r6, r6, #2
    9f9e:	d00a      	beq.n	9fb6 <__libc_csu_init+0x32>
    9fa0:	3d04      	subs	r5, #4
    9fa2:	2400      	movs	r4, #0
    9fa4:	3401      	adds	r4, #1
    9fa6:	f855 3f04 	ldr.w	r3, [r5, #4]!
    9faa:	4638      	mov	r0, r7
    9fac:	4641      	mov	r1, r8
    9fae:	464a      	mov	r2, r9
    9fb0:	4798      	blx	r3
    9fb2:	42b4      	cmp	r4, r6
    9fb4:	d1f6      	bne.n	9fa4 <__libc_csu_init+0x20>
    9fb6:	e8bd 83f8 	ldmia.w	sp!, {r3, r4, r5, r6, r7, r8, r9, pc}
    9fba:	bf00      	nop
    9fbc:	000081de 	ldrdeq	r8, [r0], -lr
    9fc0:	000081d0 	ldrdeq	r8, [r0], -r0

00009fc4 <__libc_csu_fini>:
    9fc4:	4770      	bx	lr
    9fc6:	bf00      	nop

Disassembly of section .fini:

00009fc8 <_fini>:
    9fc8:	e92d4008 	push	{r3, lr}
    9fcc:	e8bd8008 	pop	{r3, pc}

Disassembly of section .rodata:

00009fd0 <_IO_stdin_used>:
    9fd0:	00020001 	andeq	r0, r2, r1

00009fd4 <__PRETTY_FUNCTION__.7696>:
    9fd4:	736e6567 	cmnvc	lr, #432013312	; 0x19c00000
    9fd8:	00006e69 	andeq	r6, r0, r9, ror #28
    9fdc:	7665642f 	strbtvc	r6, [r5], -pc, lsr #8
    9fe0:	6e61722f 	cdpvs	2, 6, cr7, cr1, cr15, {1}
    9fe4:	006d6f64 	rsbeq	r6, sp, r4, ror #30
    9fe8:	203e206e 	eorscs	r2, lr, lr, rrx
    9fec:	00000030 	andeq	r0, r0, r0, lsr r0
    9ff0:	72726f63 	rsbsvc	r6, r2, #396	; 0x18c
    9ff4:	74616c65 	strbtvc	r6, [r1], #-3173	; 0xc65
    9ff8:	00632e65 	rsbeq	r2, r3, r5, ror #28
    9ffc:	00000077 	andeq	r0, r0, r7, ror r0
    a000:	000a6425 	andeq	r6, sl, r5, lsr #8
    a004:	7665642f 	strbtvc	r6, [r5], -pc, lsr #8
    a008:	6d656d2f 	stclvs	13, cr6, [r5, #-188]!	; 0xffffff44
    a00c:	00000000 	andeq	r0, r0, r0
    a010:	4f525245 	svcmi	0x00525245
    a014:	63203a52 	teqvs	r0, #335872	; 0x52000
    a018:	646c756f 	strbtvs	r7, [ip], #-1391	; 0x56f
    a01c:	746f6e20 	strbtvc	r6, [pc], #-3616	; a024 <__PRETTY_FUNCTION__.7696+0x50>
    a020:	65706f20 	ldrbvs	r6, [r0, #-3872]!	; 0xf20
    a024:	2f22206e 	svccs	0x0022206e
    a028:	2f766564 	svccs	0x00766564
    a02c:	226d656d 	rsbcs	r6, sp, #457179136	; 0x1b400000
    a030:	002e2e2e 	eoreq	r2, lr, lr, lsr #28
    a034:	4f525245 	svcmi	0x00525245
    a038:	6d203a52 	vstmdbvs	r0!, {s6-s87}
    a03c:	2870616d 	ldmdacs	r0!, {r0, r2, r3, r5, r6, r8, sp, lr}^
    a040:	61662029 	cmnvs	r6, r9, lsr #32
    a044:	64656c69 	strbtvs	r6, [r5], #-3177	; 0xc69
    a048:	002e2e2e 	eoreq	r2, lr, lr, lsr #28
    a04c:	4f525245 	svcmi	0x00525245
    a050:	73203a52 	teqvc	r0, #335872	; 0x52000
    a054:	74666968 	strbtvc	r6, [r6], #-2408	; 0x968
    a058:	65736162 	ldrbvs	r6, [r3, #-354]!	; 0x162
    a05c:	616d6d20 	cmnvs	sp, r0, lsr #26
    a060:	20292870 	eorcs	r2, r9, r0, ror r8
    a064:	6c696166 	stfvse	f6, [r9], #-408	; 0xfffffe68
    a068:	2e206465 	cdpcs	4, 2, cr6, cr0, cr5, {3}
    a06c:	00002e2e 	andeq	r2, r0, lr, lsr #28
    a070:	45464552 	strbmi	r4, [r6, #-1362]	; 0x552
    a074:	434e4552 	movtmi	r4, #58706	; 0xe552
    a078:	00000045 	andeq	r0, r0, r5, asr #32
    a07c:	73696f4e 	cmnvc	r9, #312	; 0x138
    a080:	34252065 	strtcc	r2, [r5], #-101	; 0x65
    a084:	2066332e 	rsbcs	r3, r6, lr, lsr #6
    a088:	6f727265 	svcvs	0x00727265
    a08c:	34252072 	strtcc	r2, [r5], #-114	; 0x72
    a090:	00000a64 	andeq	r0, r0, r4, ror #20
    a094:	45434341 	strbmi	r4, [r3, #-833]	; 0x341
    a098:	4152454c 	cmpmi	r2, ip, asr #10
    a09c:	00444554 	subeq	r4, r4, r4, asr r5
    a0a0:	73696f4e 	cmnvc	r9, #312	; 0x138
    a0a4:	34252065 	strtcc	r2, [r5], #-101	; 0x65
    a0a8:	2066332e 	rsbcs	r3, r6, lr, lsr #6
    a0ac:	6f727265 	svcvs	0x00727265
    a0b0:	34252072 	strtcc	r2, [r5], #-114	; 0x72
    a0b4:	65642064 	strbvs	r2, [r4, #-100]!	; 0x64
    a0b8:	2061746c 	rsbcs	r7, r1, ip, ror #8
    a0bc:	0a643425 	beq	1917158 <__bss_end__+0x1904e14>
    a0c0:	00000000 	andeq	r0, r0, r0
    a0c4:	61746f54 	cmnvs	r4, r4, asr pc
    a0c8:	7245206c 	subvc	r2, r5, #108	; 0x6c
    a0cc:	3a726f72 	bcc	1ca5e9c <__bss_end__+0x1c93b58>
    a0d0:	0a642520 	beq	1913558 <__bss_end__+0x1901214>
    a0d4:	00000000 	andeq	r0, r0, r0
    a0d8:	74736554 	ldrbtvc	r6, [r3], #-1364	; 0x554
    a0dc:	636e6562 	cmnvs	lr, #411041792	; 0x18800000
    a0e0:	61702068 	cmnvs	r0, r8, rrx
    a0e4:	73657373 	cmnvc	r5, #-872415231	; 0xcc000001
    a0e8:	00000021 	andeq	r0, r0, r1, lsr #32
    a0ec:	74736554 	ldrbtvc	r6, [r3], #-1364	; 0x554
    a0f0:	636e6562 	cmnvs	lr, #411041792	; 0x18800000
    a0f4:	61662068 	cmnvs	r6, r8, rrx
    a0f8:	21736c69 	cmncs	r3, r9, ror #24
    a0fc:	00000000 	andeq	r0, r0, r0
    a100:	65666552 	strbvs	r6, [r6, #-1362]!	; 0x552
    a104:	636e6572 	cmnvs	lr, #478150656	; 0x1c800000
    a108:	78452065 	stmdavc	r5, {r0, r2, r5, r6, sp}^
    a10c:	74756365 	ldrbtvc	r6, [r5], #-869	; 0x365
    a110:	206e6f69 	rsbcs	r6, lr, r9, ror #30
    a114:	656d6974 	strbvs	r6, [sp, #-2420]!	; 0x974
    a118:	6c6c2520 	cfstr64vs	mvdx2, [ip], #-128	; 0xffffff80
    a11c:	00000a64 	andeq	r0, r0, r4, ror #20
    a120:	65636341 	strbvs	r6, [r3, #-833]!	; 0x341
    a124:	6172656c 	cmnvs	r2, ip, ror #10
    a128:	20646574 	rsbcs	r6, r4, r4, ror r5
    a12c:	63657845 	cmnvs	r5, #4521984	; 0x450000
    a130:	6f697475 	svcvs	0x00697475
    a134:	6974206e 	ldmdbvs	r4!, {r1, r2, r3, r5, r6, sp}^
    a138:	2520656d 	strcs	r6, [r0, #-1389]!	; 0x56d
    a13c:	0a646c6c 	beq	19252f4 <__bss_end__+0x1912fb0>
    a140:	00000000 	andeq	r0, r0, r0
    a144:	4f525245 	svcmi	0x00525245
    a148:	6d203a52 	vstmdbvs	r0!, {s6-s87}
    a14c:	616d6e75 	smcvs	55013	; 0xd6e5
    a150:	20292870 	eorcs	r2, r9, r0, ror r8
    a154:	6c696166 	stfvse	f6, [r9], #-408	; 0xfffffe68
    a158:	2e2e6465 	cdpcs	4, 2, cr6, cr14, cr5, {3}
    a15c:	0000002e 	andeq	r0, r0, lr, lsr #32

Disassembly of section .ARM.exidx:

0000a160 <.ARM.exidx>:
    a160:	7ffff1a8 	svcvc	0x00fff1a8
    a164:	00000001 	andeq	r0, r0, r1

Disassembly of section .eh_frame:

0000a168 <__FRAME_END__>:
    a168:	00000000 	andeq	r0, r0, r0

Disassembly of section .init_array:

0001216c <__frame_dummy_init_array_entry>:
   1216c:	000093c5 	andeq	r9, r0, r5, asr #7
   12170:	00008749 	andeq	r8, r0, r9, asr #14

Disassembly of section .fini_array:

00012174 <__do_global_dtors_aux_fini_array_entry>:
   12174:	000093ad 	andeq	r9, r0, sp, lsr #7
   12178:	00008739 	andeq	r8, r0, r9, lsr r7

Disassembly of section .jcr:

0001217c <__JCR_END__>:
   1217c:	00000000 	andeq	r0, r0, r0

Disassembly of section .dynamic:

00012180 <_DYNAMIC>:
   12180:	00000001 	andeq	r0, r0, r1
   12184:	00000001 	andeq	r0, r0, r1
   12188:	00000001 	andeq	r0, r0, r1
   1218c:	0000006e 	andeq	r0, r0, lr, rrx
   12190:	0000000c 	andeq	r0, r0, ip
   12194:	00008608 	andeq	r8, r0, r8, lsl #12
   12198:	0000000d 	andeq	r0, r0, sp
   1219c:	00009fc8 	andeq	r9, r0, r8, asr #31
   121a0:	00000019 	andeq	r0, r0, r9, lsl r0
   121a4:	0001216c 	andeq	r2, r1, ip, ror #2
   121a8:	0000001b 	andeq	r0, r0, fp, lsl r0
   121ac:	00000008 	andeq	r0, r0, r8
   121b0:	0000001a 	andeq	r0, r0, sl, lsl r0
   121b4:	00012174 	andeq	r2, r1, r4, ror r1
   121b8:	0000001c 	andeq	r0, r0, ip, lsl r0
   121bc:	00000008 	andeq	r0, r0, r8
   121c0:	00000004 	andeq	r0, r0, r4
   121c4:	00008194 	muleq	r0, r4, r1
   121c8:	00000005 	andeq	r0, r0, r5
   121cc:	000083e8 	andeq	r8, r0, r8, ror #7
   121d0:	00000006 	andeq	r0, r0, r6
   121d4:	00008248 	andeq	r8, r0, r8, asr #4
   121d8:	0000000a 	andeq	r0, r0, sl
   121dc:	000000f4 	strdeq	r0, [r0], -r4
   121e0:	0000000b 	andeq	r0, r0, fp
   121e4:	00000010 	andeq	r0, r0, r0, lsl r0
   121e8:	00000015 	andeq	r0, r0, r5, lsl r0
   121ec:	00000000 	andeq	r0, r0, r0
   121f0:	00000003 	andeq	r0, r0, r3
   121f4:	00012270 	andeq	r2, r1, r0, ror r2
   121f8:	00000002 	andeq	r0, r0, r2
   121fc:	000000b0 	strheq	r0, [r0], -r0	; <UNPREDICTABLE>
   12200:	00000014 	andeq	r0, r0, r4, lsl r0
   12204:	00000011 	andeq	r0, r0, r1, lsl r0
   12208:	00000017 	andeq	r0, r0, r7, lsl r0
   1220c:	00008558 	andeq	r8, r0, r8, asr r5
   12210:	00000011 	andeq	r0, r0, r1, lsl r0
   12214:	00008550 	andeq	r8, r0, r0, asr r5
   12218:	00000012 	andeq	r0, r0, r2, lsl r0
   1221c:	00000008 	andeq	r0, r0, r8
   12220:	00000013 	andeq	r0, r0, r3, lsl r0
   12224:	00000008 	andeq	r0, r0, r8
   12228:	6ffffffe 	svcvs	0x00fffffe
   1222c:	00008510 	andeq	r8, r0, r0, lsl r5
   12230:	6fffffff 	svcvs	0x00ffffff
   12234:	00000002 	andeq	r0, r0, r2
   12238:	6ffffff0 	svcvs	0x00fffff0
   1223c:	000084dc 	ldrdeq	r8, [r0], -ip
	...

Disassembly of section .got:

00012270 <_GLOBAL_OFFSET_TABLE_>:
   12270:	00012180 	andeq	r2, r1, r0, lsl #3
	...
   1227c:	00008614 	andeq	r8, r0, r4, lsl r6
   12280:	00008614 	andeq	r8, r0, r4, lsl r6
   12284:	00008614 	andeq	r8, r0, r4, lsl r6
   12288:	00008614 	andeq	r8, r0, r4, lsl r6
   1228c:	00008614 	andeq	r8, r0, r4, lsl r6
   12290:	00008614 	andeq	r8, r0, r4, lsl r6
   12294:	00008614 	andeq	r8, r0, r4, lsl r6
   12298:	00008614 	andeq	r8, r0, r4, lsl r6
   1229c:	00008614 	andeq	r8, r0, r4, lsl r6
   122a0:	00008614 	andeq	r8, r0, r4, lsl r6
   122a4:	00008614 	andeq	r8, r0, r4, lsl r6
   122a8:	00008614 	andeq	r8, r0, r4, lsl r6
   122ac:	00008614 	andeq	r8, r0, r4, lsl r6
   122b0:	00008614 	andeq	r8, r0, r4, lsl r6
   122b4:	00008614 	andeq	r8, r0, r4, lsl r6
   122b8:	00008614 	andeq	r8, r0, r4, lsl r6
   122bc:	00008614 	andeq	r8, r0, r4, lsl r6
   122c0:	00008614 	andeq	r8, r0, r4, lsl r6
   122c4:	00008614 	andeq	r8, r0, r4, lsl r6
   122c8:	00008614 	andeq	r8, r0, r4, lsl r6
   122cc:	00008614 	andeq	r8, r0, r4, lsl r6
   122d0:	00008614 	andeq	r8, r0, r4, lsl r6
   122d4:	00000000 	andeq	r0, r0, r0

Disassembly of section .data:

000122d8 <__data_start>:
   122d8:	00000000 	andeq	r0, r0, r0

000122dc <__dso_handle>:
   122dc:	00000000 	andeq	r0, r0, r0

000122e0 <fddev>:
   122e0:	ffffffff 			; <UNDEFINED> instruction: 0xffffffff

Disassembly of section .bss:

000122e8 <completed.8884>:
	...

000122f0 <attr.7676>:
	...

00012338 <dmabase>:
   12338:	00000000 	andeq	r0, r0, r0

0001233c <cor_base>:
   1233c:	00000000 	andeq	r0, r0, r0

00012340 <bulk>:
   12340:	00000000 	andeq	r0, r0, r0

Disassembly of section .comment:

00000000 <.comment>:
   0:	3a434347 	bcc	10d0d24 <__bss_end__+0x10be9e0>
   4:	72632820 	rsbvc	r2, r3, #32, 16	; 0x200000
   8:	7473736f 	ldrbtvc	r7, [r3], #-879	; 0x36f
   c:	2d6c6f6f 	stclcs	15, cr6, [ip, #-444]!	; 0xfffffe44
  10:	6c20474e 	stcvs	7, cr4, [r0], #-312	; 0xfffffec8
  14:	72616e69 	rsbvc	r6, r1, #1680	; 0x690
  18:	2e312d6f 	cdpcs	13, 3, cr2, cr1, cr15, {3}
  1c:	312e3331 	teqcc	lr, r1, lsr r3
  20:	382e342d 	stmdacc	lr!, {r0, r2, r3, r5, sl, ip, sp}
  24:	3130322d 	teqcc	r0, sp, lsr #4
  28:	34302e34 	ldrtcc	r2, [r0], #-3636	; 0xe34
  2c:	4c202d20 	stcmi	13, cr2, [r0], #-128	; 0xffffff80
  30:	72616e69 	rsbvc	r6, r1, #1680	; 0x690
  34:	4347206f 	movtmi	r2, #28783	; 0x706f
  38:	2e342043 	cdpcs	0, 3, cr2, cr4, cr3, {2}
  3c:	30322d38 	eorscc	r2, r2, r8, lsr sp
  40:	302e3431 	eorcc	r3, lr, r1, lsr r4
  44:	34202934 	strtcc	r2, [r0], #-2356	; 0x934
  48:	332e382e 	teqcc	lr, #3014656	; 0x2e0000
  4c:	31303220 	teqcc	r0, r0, lsr #4
  50:	30343034 	eorscc	r3, r4, r4, lsr r0
  54:	70282031 	eorvc	r2, r8, r1, lsr r0
  58:	65726572 	ldrbvs	r6, [r2, #-1394]!	; 0x572
  5c:	7361656c 	cmnvc	r1, #108, 10	; 0x1b000000
  60:	Address 0x00000060 is out of bounds.


Disassembly of section .ARM.attributes:

00000000 <.ARM.attributes>:
   0:	00003441 	andeq	r3, r0, r1, asr #8
   4:	61656100 	cmnvs	r5, r0, lsl #2
   8:	01006962 	tsteq	r0, r2, ror #18
   c:	0000002a 	andeq	r0, r0, sl, lsr #32
  10:	412d3705 	teqmi	sp, r5, lsl #14
  14:	070a0600 	streq	r0, [sl, -r0, lsl #12]
  18:	09010841 	stmdbeq	r1, {r0, r6, fp}
  1c:	12040a02 	andne	r0, r4, #8192	; 0x2000
  20:	14011304 	strne	r1, [r1], #-772	; 0x304
  24:	17011501 	strne	r1, [r1, -r1, lsl #10]
  28:	19011803 	stmdbne	r1, {r0, r1, fp, ip}
  2c:	1b021a01 	blne	86838 <__bss_end__+0x744f4>
  30:	22011c03 	andcs	r1, r1, #768	; 0x300
  34:	Address 0x00000034 is out of bounds.


Disassembly of section .debug_aranges:

00000000 <.debug_aranges>:
   0:	00000034 	andeq	r0, r0, r4, lsr r0
   4:	00000002 	andeq	r0, r0, r2
   8:	00040000 	andeq	r0, r4, r0
   c:	00000000 	andeq	r0, r0, r0
  10:	000093e8 	andeq	r9, r0, r8, ror #7
  14:	00000912 	andeq	r0, r0, r2, lsl r9
  18:	00008748 	andeq	r8, r0, r8, asr #14
  1c:	0000003a 	andeq	r0, r0, sl, lsr r0
  20:	00008738 	andeq	r8, r0, r8, lsr r7
  24:	0000000e 	andeq	r0, r0, lr
  28:	00008784 	andeq	r8, r0, r4, lsl #15
  2c:	00000b82 	andeq	r0, r0, r2, lsl #23
	...

Disassembly of section .debug_info:

00000000 <.debug_info>:
       0:	000019db 	ldrdeq	r1, [r0], -fp
       4:	00000004 	andeq	r0, r0, r4
       8:	01040000 	mrseq	r0, (UNDEF: 4)
       c:	00000179 	andeq	r0, r0, r9, ror r1
      10:	00061c01 	andeq	r1, r6, r1, lsl #24
      14:	0003cd00 	andeq	ip, r3, r0, lsl #26
      18:	00015800 	andeq	r5, r1, r0, lsl #16
	...
      24:	04080200 	streq	r0, [r8], #-512	; 0x200
      28:	00000271 	andeq	r0, r0, r1, ror r2
      2c:	69050403 	stmdbvs	r5, {r0, r1, sl}
      30:	0200746e 	andeq	r7, r0, #1845493760	; 0x6e000000
      34:	00c70704 	sbceq	r0, r7, r4, lsl #14
      38:	41040000 	mrsmi	r0, (UNDEF: 4)
      3c:	02000002 	andeq	r0, r0, #2
      40:	000033d4 	ldrdeq	r3, [r0], -r4
      44:	08010200 	stmdaeq	r1, {r9}
      48:	0000059d 	muleq	r0, sp, r5
      4c:	9f070202 	svcls	0x00070202
      50:	02000003 	andeq	r0, r0, #3
      54:	00c20704 	sbceq	r0, r2, r4, lsl #14
      58:	01020000 	mrseq	r0, (UNDEF: 2)
      5c:	00059f06 	andeq	r9, r5, r6, lsl #30
      60:	05020200 	streq	r0, [r2, #-512]	; 0x200
      64:	00000111 	andeq	r0, r0, r1, lsl r1
      68:	22050802 	andcs	r0, r5, #131072	; 0x20000
      6c:	02000001 	andeq	r0, r0, #1
      70:	00bd0708 	adcseq	r0, sp, r8, lsl #14
      74:	68040000 	stmdavs	r4, {}	; <UNPREDICTABLE>
      78:	03000002 	movweq	r0, #2
      7c:	00006837 	andeq	r6, r0, r7, lsr r8
      80:	00000400 	andeq	r0, r0, r0, lsl #8
      84:	83030000 	movwhi	r0, #12288	; 0x3000
      88:	0000008c 	andeq	r0, r0, ip, lsl #1
      8c:	27050402 	strcs	r0, [r5, -r2, lsl #8]
      90:	04000001 	streq	r0, [r0], #-1
      94:	000006af 	andeq	r0, r0, pc, lsr #13
      98:	00768403 	rsbseq	r8, r6, r3, lsl #8
      9c:	04020000 	streq	r0, [r2], #-0
      a0:	00048d07 	andeq	r8, r4, r7, lsl #26
      a4:	04040500 	streq	r0, [r4], #-1280	; 0x500
      a8:	0000023e 	andeq	r0, r0, lr, lsr r2
      ac:	002cac03 	eoreq	sl, ip, r3, lsl #24
      b0:	04060000 	streq	r0, [r6], #-0
      b4:	000000b8 	strheq	r0, [r0], -r8
      b8:	a6080102 	strge	r0, [r8], -r2, lsl #2
      bc:	04000005 	streq	r0, [r0], #-5
      c0:	000004fe 	strdeq	r0, [r0], -lr
      c4:	00ca3004 	sbceq	r3, sl, r4
      c8:	fa070000 	blx	1c00d0 <__bss_end__+0x1add8c>
      cc:	98000004 	stmdals	r0, {r2}
      d0:	024af505 	subeq	pc, sl, #20971520	; 0x1400000
      d4:	24080000 	strcs	r0, [r8], #-0
      d8:	05000002 	streq	r0, [r0, #-2]
      dc:	00002cf6 	strdeq	r2, [r0], -r6
      e0:	b6080000 	strlt	r0, [r8], -r0
      e4:	05000004 	streq	r0, [r0, #-4]
      e8:	0000b2fb 	strdeq	fp, [r0], -fp	; <UNPREDICTABLE>
      ec:	63080400 	movwvs	r0, #33792	; 0x8400
      f0:	05000001 	streq	r0, [r0, #-1]
      f4:	0000b2fc 	strdeq	fp, [r0], -ip
      f8:	be080800 	cdplt	8, 0, cr0, cr8, cr0, {0}
      fc:	05000006 	streq	r0, [r0, #-6]
     100:	0000b2fd 	strdeq	fp, [r0], -sp
     104:	f8080c00 			; <UNDEFINED> instruction: 0xf8080c00
     108:	05000007 	streq	r0, [r0, #-7]
     10c:	0000b2fe 	strdeq	fp, [r0], -lr
     110:	5c081000 	stcpl	0, cr1, [r8], {-0}
     114:	05000003 	streq	r0, [r0, #-3]
     118:	0000b2ff 	strdeq	fp, [r0], -pc	; <UNPREDICTABLE>
     11c:	1a091400 	bne	245124 <__bss_end__+0x232de0>
     120:	05000007 	streq	r0, [r0, #-7]
     124:	00b20100 	adcseq	r0, r2, r0, lsl #2
     128:	09180000 	ldmdbeq	r8, {}	; <UNPREDICTABLE>
     12c:	00000089 	andeq	r0, r0, r9, lsl #1
     130:	b2010105 	andlt	r0, r1, #1073741825	; 0x40000001
     134:	1c000000 	stcne	0, cr0, [r0], {-0}
     138:	0005da09 	andeq	sp, r5, r9, lsl #20
     13c:	01020500 	tsteq	r2, r0, lsl #10
     140:	000000b2 	strheq	r0, [r0], -r2
     144:	041f0920 	ldreq	r0, [pc], #-2336	; 14c <shift+0x14c>
     148:	04050000 	streq	r0, [r5], #-0
     14c:	0000b201 	andeq	fp, r0, r1, lsl #4
     150:	6c092400 	cfstrsvs	mvf2, [r9], {-0}
     154:	05000007 	streq	r0, [r0, #-7]
     158:	00b20105 	adcseq	r0, r2, r5, lsl #2
     15c:	09280000 	stmdbeq	r8!, {}	; <UNPREDICTABLE>
     160:	000006d3 	ldrdeq	r0, [r0], -r3
     164:	b2010605 	andlt	r0, r1, #5242880	; 0x500000
     168:	2c000000 	stccs	0, cr0, [r0], {-0}
     16c:	00055709 	andeq	r5, r5, r9, lsl #14
     170:	01080500 	tsteq	r8, r0, lsl #10
     174:	00000282 	andeq	r0, r0, r2, lsl #5
     178:	000e0930 	andeq	r0, lr, r0, lsr r9
     17c:	0a050000 	beq	140184 <__bss_end__+0x12de40>
     180:	00028801 	andeq	r8, r2, r1, lsl #16
     184:	4d093400 	cfstrsmi	mvf3, [r9, #-0]
     188:	05000001 	streq	r0, [r0, #-1]
     18c:	002c010c 	eoreq	r0, ip, ip, lsl #2
     190:	09380000 	ldmdbeq	r8!, {}	; <UNPREDICTABLE>
     194:	00000450 	andeq	r0, r0, r0, asr r4
     198:	2c011005 	stccs	0, cr1, [r1], {5}
     19c:	3c000000 	stccc	0, cr0, [r0], {-0}
     1a0:	0007e709 	andeq	lr, r7, r9, lsl #14
     1a4:	01120500 	tsteq	r2, r0, lsl #10
     1a8:	00000081 	andeq	r0, r0, r1, lsl #1
     1ac:	02570940 	subseq	r0, r7, #64, 18	; 0x100000
     1b0:	16050000 	strne	r0, [r5], -r0
     1b4:	00004c01 	andeq	r4, r0, r1, lsl #24
     1b8:	f8094400 			; <UNDEFINED> instruction: 0xf8094400
     1bc:	05000005 	streq	r0, [r0, #-5]
     1c0:	005a0117 	subseq	r0, sl, r7, lsl r1
     1c4:	09460000 	stmdbeq	r6, {}^	; <UNPREDICTABLE>
     1c8:	00000030 	andeq	r0, r0, r0, lsr r0
     1cc:	8e011805 	cdphi	8, 0, cr1, cr1, cr5, {0}
     1d0:	47000002 	strmi	r0, [r0, -r2]
     1d4:	00044209 	andeq	r4, r4, r9, lsl #4
     1d8:	011c0500 	tsteq	ip, r0, lsl #10
     1dc:	0000029e 	muleq	r0, lr, r2
     1e0:	07eb0948 	strbeq	r0, [fp, r8, asr #18]!
     1e4:	25050000 	strcs	r0, [r5, #-0]
     1e8:	00009301 	andeq	r9, r0, r1, lsl #6
     1ec:	f2095000 	vhadd.s8	d5, d9, d0
     1f0:	05000006 	streq	r0, [r0, #-6]
     1f4:	00a5012e 	adceq	r0, r5, lr, lsr #2
     1f8:	09580000 	ldmdbeq	r8, {}^	; <UNPREDICTABLE>
     1fc:	000006f9 	strdeq	r0, [r0], -r9
     200:	a5012f05 	strge	r2, [r1, #-3845]	; 0xf05
     204:	5c000000 	stcpl	0, cr0, [r0], {-0}
     208:	00070009 	andeq	r0, r7, r9
     20c:	01300500 	teqeq	r0, r0, lsl #10
     210:	000000a5 	andeq	r0, r0, r5, lsr #1
     214:	07070960 	streq	r0, [r7, -r0, ror #18]
     218:	31050000 	mrscc	r0, (UNDEF: 5)
     21c:	0000a501 	andeq	sl, r0, r1, lsl #10
     220:	db096400 	blle	259228 <__bss_end__+0x246ee4>
     224:	05000002 	streq	r0, [r0, #-2]
     228:	003a0132 	eorseq	r0, sl, r2, lsr r1
     22c:	09680000 	stmdbeq	r8!, {}^	; <UNPREDICTABLE>
     230:	00000458 	andeq	r0, r0, r8, asr r4
     234:	2c013405 	cfstrscs	mvf3, [r1], {5}
     238:	6c000000 	stcvs	0, cr0, [r0], {-0}
     23c:	00073309 	andeq	r3, r7, r9, lsl #6
     240:	01360500 	teqeq	r6, r0, lsl #10
     244:	000002a4 	andeq	r0, r0, r4, lsr #5
     248:	e40a0070 	str	r0, [sl], #-112	; 0x70
     24c:	05000004 	streq	r0, [r0, #-4]
     250:	0301079a 	movweq	r0, #6042	; 0x179a
     254:	050c0000 	streq	r0, [ip, #-0]
     258:	000282a0 	andeq	r8, r2, r0, lsr #5
     25c:	069c0800 	ldreq	r0, [ip], r0, lsl #16
     260:	a1050000 	mrsge	r0, (UNDEF: 5)
     264:	00000282 	andeq	r0, r0, r2, lsl #5
     268:	03940800 	orrseq	r0, r4, #0, 16
     26c:	a2050000 	andge	r0, r5, #0
     270:	00000288 	andeq	r0, r0, r8, lsl #5
     274:	052f0804 	streq	r0, [pc, #-2052]!	; fffffa78 <__bss_end__+0xfffed734>
     278:	a6050000 	strge	r0, [r5], -r0
     27c:	0000002c 	andeq	r0, r0, ip, lsr #32
     280:	04060008 	streq	r0, [r6], #-8
     284:	00000251 	andeq	r0, r0, r1, asr r2
     288:	00ca0406 	sbceq	r0, sl, r6, lsl #8
     28c:	b80b0000 	stmdalt	fp, {}	; <UNPREDICTABLE>
     290:	9e000000 	cdpls	0, 0, cr0, cr0, cr0, {0}
     294:	0c000002 	stceq	0, cr0, [r0], {2}
     298:	0000009e 	muleq	r0, lr, r0
     29c:	04060000 	streq	r0, [r6], #-0
     2a0:	0000024a 	andeq	r0, r0, sl, asr #4
     2a4:	0000b80b 	andeq	fp, r0, fp, lsl #16
     2a8:	0002b400 	andeq	fp, r2, r0, lsl #8
     2ac:	009e0c00 	addseq	r0, lr, r0, lsl #24
     2b0:	00270000 	eoreq	r0, r7, r0
     2b4:	02ba0406 	adcseq	r0, sl, #100663296	; 0x6000000
     2b8:	b80d0000 	stmdalt	sp, {}	; <UNPREDICTABLE>
     2bc:	04000000 	streq	r0, [r0], #-0
     2c0:	00000240 	andeq	r0, r0, r0, asr #4
     2c4:	00a76604 	adceq	r6, r7, r4, lsl #12
     2c8:	b70e0000 	strlt	r0, [lr, -r0]
     2cc:	06000007 	streq	r0, [r0], -r7
     2d0:	02d602e6 	sbcseq	r0, r6, #1610612750	; 0x6000000e
     2d4:	04060000 	streq	r0, [r6], #-0
     2d8:	000002dc 	ldrdeq	r0, [r0], -ip
     2dc:	00002c0f 	andeq	r2, r0, pc, lsl #24
     2e0:	0002f000 	andeq	pc, r2, r0
     2e4:	02f01000 	rscseq	r1, r0, #0
     2e8:	f0100000 			; <UNDEFINED> instruction: 0xf0100000
     2ec:	00000002 	andeq	r0, r0, r2
     2f0:	02f60406 	rscseq	r0, r6, #100663296	; 0x6000000
     2f4:	02110000 	andseq	r0, r1, #0
     2f8:	051a0404 	ldreq	r0, [sl, #-1028]	; 0x404
     2fc:	56040000 	strpl	r0, [r4], -r0
     300:	07000003 	streq	r0, [r0, -r3]
     304:	0000331a 	andeq	r3, r0, sl, lsl r3
     308:	06330400 	ldrteq	r0, [r3], -r0, lsl #8
     30c:	1e070000 	cdpne	0, 0, cr0, cr7, cr0, {0}
     310:	0000006f 	andeq	r0, r0, pc, rrx
     314:	0003c012 	andeq	ip, r3, r2, lsl r0
     318:	1c080400 	cfstrsne	mvf0, [r8], {-0}
     31c:	0000034b 	andeq	r0, r0, fp, asr #6
     320:	00037613 	andeq	r7, r3, r3, lsl r6
     324:	c3130000 	tstgt	r3, #0
     328:	01000004 	tsteq	r0, r4
     32c:	00028813 	andeq	r8, r2, r3, lsl r8
     330:	2b130200 	blcs	4c0b38 <__bss_end__+0x4ae7f4>
     334:	03000002 	movweq	r0, #2
     338:	0003b213 	andeq	fp, r3, r3, lsl r2
     33c:	3c130400 	cfldrscc	mvf0, [r3], {-0}
     340:	05000007 	streq	r0, [r0, #-7]
     344:	0002e213 	andeq	lr, r2, r3, lsl r2
     348:	12000600 	andne	r0, r0, #0, 12
     34c:	00000676 	andeq	r0, r0, r6, ror r6
     350:	942c0804 	strtls	r0, [ip], #-2052	; 0x804
     354:	13000003 	movwne	r0, #3
     358:	0000045e 	andeq	r0, r0, lr, asr r4
     35c:	02b31300 	adcseq	r1, r3, #0, 6
     360:	13010000 	movwne	r0, #4096	; 0x1000
     364:	000005ab 	andeq	r0, r0, fp, lsr #11
     368:	00a21302 	adceq	r1, r2, r2, lsl #6
     36c:	13030000 	movwne	r0, #12288	; 0x3000
     370:	000000e6 	andeq	r0, r0, r6, ror #1
     374:	053b1304 	ldreq	r1, [fp, #-772]!	; 0x304
     378:	13050000 	movwne	r0, #20480	; 0x5000
     37c:	00000785 	andeq	r0, r0, r5, lsl #15
     380:	06461306 	strbeq	r1, [r6], -r6, lsl #6
     384:	13070000 	movwne	r0, #28672	; 0x7000
     388:	00000064 	andeq	r0, r0, r4, rrx
     38c:	00d41308 	sbcseq	r1, r4, r8, lsl #6
     390:	00090000 	andeq	r0, r9, r0
     394:	ba080814 	blt	2023ec <__bss_end__+0x1f00a8>
     398:	000003b3 			; <UNDEFINED> instruction: 0x000003b3
     39c:	0004d615 	andeq	sp, r4, r5, lsl r6
     3a0:	09bb0800 	ldmibeq	fp!, {fp}
     3a4:	15000003 	strne	r0, [r0, #-3]
     3a8:	00000610 	andeq	r0, r0, r0, lsl r6
     3ac:	0309bc08 	movweq	fp, #39944	; 0x9c08
     3b0:	14000000 	strne	r0, [r0], #-0
     3b4:	d2e10804 	rscle	r0, r1, #4, 16	; 0x40000
     3b8:	15000003 	strne	r0, [r0, #-3]
     3bc:	00000155 	andeq	r0, r0, r5, asr r1
     3c0:	02fee208 	rscseq	lr, lr, #8, 4	; 0x80000000
     3c4:	1f150000 	svcne	0x00150000
     3c8:	08000000 	stmdaeq	r0, {}	; <UNPREDICTABLE>
     3cc:	0002fee3 	andeq	pc, r2, r3, ror #29
     3d0:	08140000 	ldmdaeq	r4, {}	; <UNPREDICTABLE>
     3d4:	03f1e708 	mvnseq	lr, #8, 14	; 0x200000
     3d8:	8d150000 	ldchi	0, cr0, [r5, #-0]
     3dc:	08000005 	stmdaeq	r0, {r0, r2}
     3e0:	000309e8 	andeq	r0, r3, r8, ror #19
     3e4:	029d1500 	addseq	r1, sp, #0, 10
     3e8:	e9080000 	stmdb	r8, {}	; <UNPREDICTABLE>
     3ec:	00000309 	andeq	r0, r0, r9, lsl #6
     3f0:	08081400 	stmdaeq	r8, {sl, ip}
     3f4:	000410eb 	andeq	r1, r4, fp, ror #1
     3f8:	031f1500 	tsteq	pc, #0, 10
     3fc:	ec080000 	stc	0, cr0, [r8], {-0}
     400:	00000309 	andeq	r0, r0, r9, lsl #6
     404:	0002a515 	andeq	sl, r2, r5, lsl r5
     408:	09ed0800 	stmibeq	sp!, {fp}^
     40c:	00000003 	andeq	r0, r0, r3
     410:	0005ca07 	andeq	ip, r5, r7, lsl #20
     414:	a9084800 	stmdbge	r8, {fp, lr}
     418:	0000059a 	muleq	r0, sl, r5
     41c:	00034608 	andeq	r4, r3, r8, lsl #12
     420:	feae0800 	cdp2	8, 10, cr0, cr14, cr0, {0}
     424:	00000002 	andeq	r0, r0, r2
     428:	00039a08 	andeq	r9, r3, r8, lsl #20
     42c:	feb30800 	cdp2	8, 11, cr0, cr3, cr0, {0}
     430:	04000002 	streq	r0, [r0], #-2
     434:	00063f08 	andeq	r3, r6, r8, lsl #30
     438:	09b80800 	ldmibeq	r8!, {fp}
     43c:	08000003 	stmdaeq	r0, {r0, r1}
     440:	00039416 	andeq	r9, r3, r6, lsl r4
     444:	3f081000 	svccc	0x00081000
     448:	08000003 	stmdaeq	r0, {r0, r1}
     44c:	000309bf 			; <UNDEFINED> instruction: 0x000309bf
     450:	96081800 	strls	r1, [r8], -r0, lsl #16
     454:	08000000 	stmdaeq	r0, {}	; <UNPREDICTABLE>
     458:	000309c0 	andeq	r0, r3, r0, asr #19
     45c:	2e172000 	cdpcs	0, 1, cr2, cr7, cr0, {0}
     460:	08000003 	stmdaeq	r0, {r0, r1}
     464:	000309c2 	andeq	r0, r3, r2, asr #19
     468:	3f010800 	svccc	0x00010800
     46c:	03371728 	teqeq	r7, #40, 14	; 0xa00000
     470:	c3080000 	movwgt	r0, #32768	; 0x8000
     474:	00000309 	andeq	r0, r0, r9, lsl #6
     478:	283e0108 	ldmdacs	lr!, {r3, r8}
     47c:	00069517 	andeq	r9, r6, r7, lsl r5
     480:	09c40800 	stmibeq	r4, {fp}^
     484:	08000003 	stmdaeq	r0, {r0, r1}
     488:	17283d01 	strne	r3, [r8, -r1, lsl #26]!
     48c:	0000003a 	andeq	r0, r0, sl, lsr r0
     490:	0309c508 	movweq	ip, #38152	; 0x9508
     494:	01080000 	mrseq	r0, (UNDEF: 8)
     498:	0017283c 	andseq	r2, r7, ip, lsr r8
     49c:	08000002 	stmdaeq	r0, {r1}
     4a0:	000309c6 	andeq	r0, r3, r6, asr #19
     4a4:	3b010800 	blcc	424ac <__bss_end__+0x30168>
     4a8:	04961728 	ldreq	r1, [r6], #1832	; 0x728
     4ac:	c7080000 	strgt	r0, [r8, -r0]
     4b0:	00000309 	andeq	r0, r0, r9, lsl #6
     4b4:	283a0108 	ldmdacs	sl!, {r3, r8}
     4b8:	00038917 	andeq	r8, r3, r7, lsl r9
     4bc:	09c80800 	stmibeq	r8, {fp}^
     4c0:	08000003 	stmdaeq	r0, {r0, r1}
     4c4:	17283901 	strne	r3, [r8, -r1, lsl #18]!
     4c8:	00000681 	andeq	r0, r0, r1, lsl #13
     4cc:	0309c908 	movweq	ip, #39176	; 0x9908
     4d0:	01080000 	mrseq	r0, (UNDEF: 8)
     4d4:	63172838 	tstvs	r7, #56, 16	; 0x380000
     4d8:	08000002 	stmdaeq	r0, {r1}
     4dc:	000309ca 	andeq	r0, r3, sl, asr #19
     4e0:	37010800 	strcc	r0, [r1, -r0, lsl #16]
     4e4:	005a1728 	subseq	r1, sl, r8, lsr #14
     4e8:	cb080000 	blgt	2004f0 <__bss_end__+0x1ee1ac>
     4ec:	00000309 	andeq	r0, r0, r9, lsl #6
     4f0:	28360108 	ldmdacs	r6!, {r3, r8}
     4f4:	00061717 	andeq	r1, r6, r7, lsl r7
     4f8:	09cc0800 	stmibeq	ip, {fp}^
     4fc:	08000003 	stmdaeq	r0, {r0, r1}
     500:	17283501 	strne	r3, [r8, -r1, lsl #10]!
     504:	00000807 	andeq	r0, r0, r7, lsl #16
     508:	0309cd08 	movweq	ip, #40200	; 0x9d08
     50c:	01080000 	mrseq	r0, (UNDEF: 8)
     510:	29172834 	ldmdbcs	r7, {r2, r4, r5, fp, sp}
     514:	08000008 	stmdaeq	r0, {r3}
     518:	000309ce 	andeq	r0, r3, lr, asr #19
     51c:	33010800 	movwcc	r0, #6144	; 0x1800
     520:	06b91728 	ldrteq	r1, [r9], r8, lsr #14
     524:	cf080000 	svcgt	0x00080000
     528:	00000309 	andeq	r0, r0, r9, lsl #6
     52c:	28320108 	ldmdacs	r2!, {r3, r8}
     530:	00002617 	andeq	r2, r0, r7, lsl r6
     534:	09d00800 	ldmibeq	r0, {fp}^
     538:	08000003 	stmdaeq	r0, {r0, r1}
     53c:	17283101 	strne	r3, [r8, -r1, lsl #2]!
     540:	00000728 	andeq	r0, r0, r8, lsr #14
     544:	0309db08 	movweq	sp, #39688	; 0x9b08
     548:	02080000 	andeq	r0, r8, #0
     54c:	1517282f 	ldrne	r2, [r7, #-2095]	; 0x82f
     550:	08000000 	stmdaeq	r0, {}	; <UNPREDICTABLE>
     554:	000309dc 	ldrdeq	r0, [r3], -ip
     558:	2e010800 	cdpcs	8, 0, cr0, cr1, cr0, {0}
     55c:	056e1728 	strbeq	r1, [lr, #-1832]!	; 0x728
     560:	dd080000 	stcle	0, cr0, [r8, #-0]
     564:	00000309 	andeq	r0, r0, r9, lsl #6
     568:	282d0108 	stmdacs	sp!, {r3, r8}
     56c:	00031217 	andeq	r1, r3, r7, lsl r2
     570:	09df0800 	ldmibeq	pc, {fp}^	; <UNPREDICTABLE>
     574:	08000003 	stmdaeq	r0, {r0, r1}
     578:	1628002d 	strtne	r0, [r8], -sp, lsr #32
     57c:	000003b3 			; <UNDEFINED> instruction: 0x000003b3
     580:	04480830 	strbeq	r0, [r8], #-2096	; 0x830
     584:	e6080000 	str	r0, [r8], -r0
     588:	000002fe 	strdeq	r0, [r0], -lr
     58c:	03d21634 	bicseq	r1, r2, #52, 12	; 0x3400000
     590:	16380000 	ldrtne	r0, [r8], -r0
     594:	000003f1 	strdeq	r0, [r0], -r1
     598:	08040040 	stmdaeq	r4, {r6}
     59c:	01000001 	tsteq	r0, r1
     5a0:	00005a2b 	andeq	r5, r0, fp, lsr #20
     5a4:	07cc0400 	strbeq	r0, [ip, r0, lsl #8]
     5a8:	2c010000 	stccs	0, cr0, [r1], {-0}
     5ac:	000005b0 			; <UNDEFINED> instruction: 0x000005b0
     5b0:	05b60406 	ldreq	r0, [r6, #1030]!	; 0x406
     5b4:	5a180000 	bpl	6005bc <__bss_end__+0x5ee278>
     5b8:	04000000 	streq	r0, [r0], #-0
     5bc:	00000434 	andeq	r0, r0, r4, lsr r4
     5c0:	00332d01 	eorseq	r2, r3, r1, lsl #26
     5c4:	0d190000 	ldceq	0, cr0, [r9, #-0]
     5c8:	01000002 	tsteq	r0, r2
     5cc:	0005bb59 	andeq	fp, r5, r9, asr fp
     5d0:	05ff0100 	ldrbeq	r0, [pc, #256]!	; 6d8 <shift+0x6d8>
     5d4:	731a0000 	tstvc	sl, #0
     5d8:	01006769 	tsteq	r0, r9, ror #14
     5dc:	0005ff59 	andeq	pc, r5, r9, asr pc	; <UNPREDICTABLE>
     5e0:	00731a00 	rsbseq	r1, r3, r0, lsl #20
     5e4:	05bb5901 	ldreq	r5, [fp, #2305]!	; 0x901
     5e8:	691b0000 	ldmdbvs	fp, {}	; <UNPREDICTABLE>
     5ec:	bb5a0100 	bllt	16809f4 <__bss_end__+0x166e6b0>
     5f0:	1b000005 	blne	60c <shift+0x60c>
     5f4:	0078616d 	rsbseq	r6, r8, sp, ror #2
     5f8:	05bb5a01 	ldreq	r5, [fp, #2561]!	; 0xa01
     5fc:	06000000 	streq	r0, [r0], -r0
     600:	00002504 	andeq	r2, r0, r4, lsl #10
     604:	05841c00 	streq	r1, [r4, #3072]	; 0xc00
     608:	d8010000 	stmdale	r1, {}	; <UNPREDICTABLE>
     60c:	00061d01 	andeq	r1, r6, r1, lsl #26
     610:	047e1d00 	ldrbteq	r1, [lr], #-3328	; 0xd00
     614:	d8010000 	stmdale	r1, {}	; <UNPREDICTABLE>
     618:	0000061d 	andeq	r0, r0, sp, lsl r6
     61c:	23040600 	movwcs	r0, #17920	; 0x4600
     620:	18000006 	stmdane	r0, {r1, r2}
     624:	00000033 	andeq	r0, r0, r3, lsr r0
     628:	0006a21c 	andeq	sl, r6, ip, lsl r2
     62c:	01ed0100 	mvneq	r0, r0, lsl #2
     630:	00000661 	andeq	r0, r0, r1, ror #12
     634:	00047e1d 	andeq	r7, r4, sp, lsl lr
     638:	1ded0100 	stfnee	f0, [sp]
     63c:	1d000006 	stcne	0, cr0, [r0, #-24]	; 0xffffffe8
     640:	00000486 	andeq	r0, r0, r6, lsl #9
     644:	0033ee01 	eorseq	lr, r3, r1, lsl #28
     648:	f51d0000 			; <UNDEFINED> instruction: 0xf51d0000
     64c:	01000002 	tsteq	r0, r2
     650:	000033ef 	andeq	r3, r0, pc, ror #7
     654:	05341d00 	ldreq	r1, [r4, #-3328]!	; 0xd00
     658:	f0010000 			; <UNDEFINED> instruction: 0xf0010000
     65c:	00000033 	andeq	r0, r0, r3, lsr r0
     660:	06e61900 	strbteq	r1, [r6], r0, lsl #18
     664:	cd010000 	stcgt	0, cr0, [r1, #-0]
     668:	0000002c 	andeq	r0, r0, ip, lsr #32
     66c:	00067d01 	andeq	r7, r6, r1, lsl #26
     670:	047e1d00 	ldrbteq	r1, [lr], #-3328	; 0xd00
     674:	cd010000 	stcgt	0, cr0, [r1, #-0]
     678:	0000061d 	andeq	r0, r0, sp, lsl r6
     67c:	011b1e00 	tsteq	fp, r0, lsl #28
     680:	3f010000 	svccc	0x00010000
     684:	00006f01 	andeq	r6, r0, r1, lsl #30
     688:	069b0100 	ldreq	r0, [fp], r0, lsl #2
     68c:	141f0000 	ldrne	r0, [pc], #-0	; 694 <shift+0x694>
     690:	01000005 	tsteq	r0, r5
     694:	069b013f 			; <UNDEFINED> instruction: 0x069b013f
     698:	06000000 	streq	r0, [r0], -r0
     69c:	00006f04 	andeq	r6, r0, r4, lsl #30
     6a0:	05201c00 	streq	r1, [r0, #-3072]!	; 0xc00
     6a4:	42010000 	andmi	r0, r1, #0
     6a8:	0006d401 	andeq	sp, r6, r1, lsl #8
     6ac:	00761a00 	rsbseq	r1, r6, r0, lsl #20
     6b0:	05ff4201 	ldrbeq	r4, [pc, #513]!	; 8b9 <shift+0x8b9>
     6b4:	6e1a0000 	cdpvs	0, 1, cr0, cr10, cr0, {0}
     6b8:	bb430100 	bllt	10c0ac0 <__bss_end__+0x10ae77c>
     6bc:	1d000005 	stcne	0, cr0, [r0, #-20]	; 0xffffffec
     6c0:	00000756 	andeq	r0, r0, r6, asr r7
     6c4:	00254401 	eoreq	r4, r5, r1, lsl #8
     6c8:	691b0000 	ldmdbvs	fp, {}	; <UNPREDICTABLE>
     6cc:	bb450100 	bllt	1140ad4 <__bss_end__+0x112e790>
     6d0:	00000005 	andeq	r0, r0, r5
     6d4:	00070e1c 	andeq	r0, r7, ip, lsl lr
     6d8:	014d0100 	mrseq	r0, (UNDEF: 93)
     6dc:	00000728 	andeq	r0, r0, r8, lsr #14
     6e0:	6769731a 			; <UNDEFINED> instruction: 0x6769731a
     6e4:	ff4d0100 			; <UNDEFINED> instruction: 0xff4d0100
     6e8:	1a000005 	bne	704 <shift+0x704>
     6ec:	4d010073 	stcmi	0, cr0, [r1, #-460]	; 0xfffffe34
     6f0:	000005bb 			; <UNDEFINED> instruction: 0x000005bb
     6f4:	0007561d 	andeq	r5, r7, sp, lsl r6
     6f8:	254e0100 	strbcs	r0, [lr, #-256]	; 0x100
     6fc:	1d000000 	stcne	0, cr0, [r0, #-0]
     700:	00000607 	andeq	r0, r0, r7, lsl #12
     704:	05ff4f01 	ldrbeq	r4, [pc, #3841]!	; 160d <shift+0x160d>
     708:	741a0000 	ldrvc	r0, [sl], #-0
     70c:	bb4f0100 	bllt	13c0b14 <__bss_end__+0x13ae7d0>
     710:	1a000005 	bne	72c <shift+0x72c>
     714:	00736f70 	rsbseq	r6, r3, r0, ror pc
     718:	05bb5001 	ldreq	r5, [fp, #1]!
     71c:	691b0000 	ldmdbvs	fp, {}	; <UNPREDICTABLE>
     720:	bb520100 	bllt	1480b28 <__bss_end__+0x146e7e4>
     724:	00000005 	andeq	r0, r0, r5
     728:	0001441c 	andeq	r4, r1, ip, lsl r4
     72c:	01640100 	cmneq	r4, r0, lsl #2
     730:	0000077a 	andeq	r0, r0, sl, ror r7
     734:	6769731a 			; <UNDEFINED> instruction: 0x6769731a
     738:	ff640100 			; <UNDEFINED> instruction: 0xff640100
     73c:	1a000005 	bne	758 <shift+0x758>
     740:	64010073 	strvs	r0, [r1], #-115	; 0x73
     744:	000005bb 			; <UNDEFINED> instruction: 0x000005bb
     748:	00066c1d 	andeq	r6, r6, sp, lsl ip
     74c:	33650100 	cmncc	r5, #0, 2
     750:	1a000000 	bne	758 <shift+0x758>
     754:	66010076 			; <UNDEFINED> instruction: 0x66010076
     758:	000005a5 	andeq	r0, r0, r5, lsr #11
     75c:	01006d1b 	tsteq	r0, fp, lsl sp
     760:	0005bb68 	andeq	fp, r5, r8, ror #22
     764:	00691b00 	rsbeq	r1, r9, r0, lsl #22
     768:	00336901 	eorseq	r6, r3, r1, lsl #18
     76c:	08200000 	stmdaeq	r0!, {}	; <UNPREDICTABLE>
     770:	01000000 	mrseq	r0, (UNDEF: 0)
     774:	0000256a 	andeq	r2, r0, sl, ror #10
     778:	061c0000 	ldreq	r0, [ip], -r0
     77c:	01000005 	tsteq	r0, r5
     780:	08030186 	stmdaeq	r3, {r1, r2, r7, r8}
     784:	731a0000 	tstvc	sl, #0
     788:	01006769 	tsteq	r0, r9, ror #14
     78c:	0005a586 	andeq	sl, r5, r6, lsl #11
     790:	05ee1d00 	strbeq	r1, [lr, #3328]!	; 0xd00
     794:	87010000 	strhi	r0, [r1, -r0]
     798:	000005bb 			; <UNDEFINED> instruction: 0x000005bb
     79c:	0002801d 	andeq	r8, r2, sp, lsl r0
     7a0:	bb880100 	bllt	fe200ba8 <__bss_end__+0xfe1ee864>
     7a4:	1d000005 	stcne	0, cr0, [r0, #-20]	; 0xffffffec
     7a8:	00000607 	andeq	r0, r0, r7, lsl #12
     7ac:	05a58901 	streq	r8, [r5, #2305]!	; 0x901
     7b0:	781d0000 	ldmdavc	sp, {}	; <UNPREDICTABLE>
     7b4:	01000002 	tsteq	r0, r2
     7b8:	0005bb8a 	andeq	fp, r5, sl, lsl #23
     7bc:	00631a00 	rsbeq	r1, r3, r0, lsl #20
     7c0:	08038b01 	stmdaeq	r3, {r0, r8, r9, fp, pc}
     7c4:	691b0000 	ldmdbvs	fp, {}	; <UNPREDICTABLE>
     7c8:	bb8d0100 	bllt	fe340bd0 <__bss_end__+0xfe32e88c>
     7cc:	1b000005 	blne	7e8 <shift+0x7e8>
     7d0:	8d01006a 	stchi	0, cr0, [r1, #-424]	; 0xfffffe58
     7d4:	000005bb 			; <UNDEFINED> instruction: 0x000005bb
     7d8:	01006b1b 	tsteq	r0, fp, lsl fp
     7dc:	0005bb8d 	andeq	fp, r5, sp, lsl #23
     7e0:	63611b00 	cmnvs	r1, #0, 22
     7e4:	8e010063 	cdphi	0, 0, cr0, cr1, cr3, {3}
     7e8:	0000002c 	andeq	r0, r0, ip, lsr #32
     7ec:	78616d1b 	stmdavc	r1!, {r0, r1, r3, r4, r8, sl, fp, sp, lr}^
     7f0:	2c8f0100 	stfcss	f0, [pc], {0}
     7f4:	20000000 	andcs	r0, r0, r0
     7f8:	0000077c 	andeq	r0, r0, ip, ror r7
     7fc:	05bb9001 	ldreq	r9, [fp, #1]!
     800:	06000000 	streq	r0, [r0], -r0
     804:	0005bb04 	andeq	fp, r5, r4, lsl #22
     808:	04a52100 	strteq	r2, [r5], #256	; 0x100
     80c:	39010000 	stmdbcc	r1, {}	; <UNPREDICTABLE>
     810:	00002c01 	andeq	r2, r0, r1, lsl #24
     814:	0093e800 	addseq	lr, r3, r0, lsl #16
     818:	00002400 	andeq	r2, r0, r0, lsl #8
     81c:	5a9c0100 	bpl	fe700c24 <__bss_end__+0xfe6ee8e0>
     820:	22000008 	andcs	r0, r0, #8
     824:	39010061 	stmdbcc	r1, {r0, r5, r6}
     828:	0002f001 	andeq	pc, r2, r1
     82c:	00000000 	andeq	r0, r0, r0
     830:	00622300 	rsbeq	r2, r2, r0, lsl #6
     834:	f0013901 			; <UNDEFINED> instruction: 0xf0013901
     838:	01000002 	tsteq	r0, r2
     83c:	61642451 	cmnvs	r4, r1, asr r4
     840:	013a0100 	teqeq	sl, r0, lsl #2
     844:	0000085a 	andeq	r0, r0, sl, asr r8
     848:	00000000 	andeq	r0, r0, r0
     84c:	00626425 	rsbeq	r6, r2, r5, lsr #8
     850:	5a013b01 	bpl	4f45c <__bss_end__+0x3d118>
     854:	01000008 	tsteq	r0, r8
     858:	04060051 	streq	r0, [r6], #-81	; 0x51
     85c:	00000860 	andeq	r0, r0, r0, ror #16
     860:	00006f0d 	andeq	r6, r0, sp, lsl #30
     864:	005f2600 	subseq	r2, pc, r0, lsl #12
     868:	19010000 	stmdbne	r1, {}	; <UNPREDICTABLE>
     86c:	00008748 	andeq	r8, r0, r8, asr #14
     870:	0000003a 	andeq	r0, r0, sl, lsr r0
     874:	08bd9c01 	popeq	{r0, sl, fp, ip, pc}
     878:	d5270000 	strle	r0, [r7, #-0]!
     87c:	01000005 	tsteq	r0, r5
     880:	0004101a 	andeq	r1, r4, sl, lsl r0
     884:	f0030500 			; <UNDEFINED> instruction: 0xf0030500
     888:	28000122 	stmdacs	r0, {r1, r5, r8}
     88c:	00008774 	andeq	r8, r0, r4, ror r7
     890:	00001810 	andeq	r1, r0, r0, lsl r8
     894:	02530129 	subseq	r0, r3, #1073741834	; 0x4000000a
     898:	0129ff09 	msreq	(UNDEF: 57), r9
     89c:	00740252 	rsbseq	r0, r4, r2, asr r2
     8a0:	02510129 	subseq	r0, r1, #1073741834	; 0x4000000a
     8a4:	01290076 	teqeq	r9, r6, ror r0
     8a8:	6c0a0350 	stcvs	3, cr0, [sl], {80}	; 0x50
     8ac:	7d022901 	stcvc	9, cr2, [r2, #-4]
     8b0:	00740204 	rsbseq	r0, r4, r4, lsl #4
     8b4:	007d0229 	rsbseq	r0, sp, r9, lsr #4
     8b8:	00ff0902 	rscseq	r0, pc, r2, lsl #18
     8bc:	07d82600 	ldrbeq	r2, [r8, r0, lsl #12]
     8c0:	20010000 	andcs	r0, r1, r0
     8c4:	00008738 	andeq	r8, r0, r8, lsr r7
     8c8:	0000000e 	andeq	r0, r0, lr
     8cc:	08dc9c01 	ldmeq	ip, {r0, sl, fp, ip, pc}^
     8d0:	462a0000 	strtmi	r0, [sl], -r0
     8d4:	27000087 	strcs	r0, [r0, -r7, lsl #1]
     8d8:	00000018 	andeq	r0, r0, r8, lsl r0
     8dc:	00081b2b 	andeq	r1, r8, fp, lsr #22
     8e0:	0c300100 	ldfeqs	f0, [r0], #-0
     8e4:	2c000094 	stccs	0, cr0, [r0], {148}	; 0x94
     8e8:	01000000 	mrseq	r0, (UNDEF: 0)
     8ec:	00095f9c 	muleq	r9, ip, pc	; <UNPREDICTABLE>
     8f0:	00732c00 	rsbseq	r2, r3, r0, lsl #24
     8f4:	00333101 	eorseq	r3, r3, r1, lsl #2
     8f8:	91020000 	mrsls	r0, (UNDEF: 2)
     8fc:	00662d74 	rsbeq	r2, r6, r4, ror sp
     900:	002c3201 	eoreq	r3, ip, r1, lsl #4
     904:	00210000 	eoreq	r0, r1, r0
     908:	1e2e0000 	cdpne	0, 2, cr0, cr14, cr0, {0}
     90c:	3d000094 	stccc	0, cr0, [r0, #-592]	; 0xfffffdb0
     910:	26000018 			; <UNDEFINED> instruction: 0x26000018
     914:	29000009 	stmdbcs	r0, {r0, r3}
     918:	30015101 	andcc	r5, r1, r1, lsl #2
     91c:	05500129 	ldrbeq	r0, [r0, #-297]	; 0x129
     920:	009fdc03 	addseq	sp, pc, r3, lsl #24
     924:	282e0000 	stmdacs	lr!, {}	; <UNPREDICTABLE>
     928:	58000094 	stmdapl	r0, {r2, r4, r7}
     92c:	45000018 	strmi	r0, [r0, #-24]
     930:	29000009 	stmdbcs	r0, {r0, r3}
     934:	34015201 	strcc	r5, [r1], #-513	; 0x201
     938:	02510129 	subseq	r0, r1, #1073741834	; 0x4000000a
     93c:	01297491 			; <UNDEFINED> instruction: 0x01297491
     940:	00740250 	rsbseq	r0, r4, r0, asr r2
     944:	942e2f00 	strtls	r2, [lr], #-3840	; 0xf00
     948:	18780000 	ldmdane	r8!, {}^	; <UNPREDICTABLE>
     94c:	34280000 	strtcc	r0, [r8], #-0
     950:	27000094 			; <UNDEFINED> instruction: 0x27000094
     954:	29000018 	stmdbcs	r0, {r3, r4}
     958:	74025001 	strvc	r5, [r2], #-1
     95c:	30000000 	andcc	r0, r0, r0
     960:	000007c5 	andeq	r0, r0, r5, asr #15
     964:	94383901 	ldrtls	r3, [r8], #-2305	; 0x901
     968:	00f80000 	rscseq	r0, r8, r0
     96c:	9c010000 	stcls	0, cr0, [r1], {-0}
     970:	00000a99 	muleq	r0, r9, sl
     974:	01007631 	tsteq	r0, r1, lsr r6
     978:	0005ff39 	andeq	pc, r5, r9, lsr pc	; <UNPREDICTABLE>
     97c:	00003f00 	andeq	r3, r0, r0, lsl #30
     980:	006e3100 	rsbeq	r3, lr, r0, lsl #2
     984:	05bb3901 	ldreq	r3, [fp, #2305]!	; 0x901
     988:	00760000 	rsbseq	r0, r6, r0
     98c:	692d0000 	pushvs	{}	; <UNPREDICTABLE>
     990:	bb3a0100 	bllt	e80d98 <__bss_end__+0xe6ea54>
     994:	aa000005 	bge	9b0 <shift+0x9b0>
     998:	32000000 	andcc	r0, r0, #0
     99c:	00000130 	andeq	r0, r0, r0, lsr r1
     9a0:	00000aa9 	andeq	r0, r0, r9, lsr #21
     9a4:	9fd40305 	svcls	0x00d40305
     9a8:	7e2e0000 	cdpvc	0, 2, cr0, cr14, cr0, {0}
     9ac:	8a000094 	bhi	c04 <shift+0xc04>
     9b0:	d1000018 	tstle	r0, r8, lsl r0
     9b4:	29000009 	stmdbcs	r0, {r0, r3}
     9b8:	93409008 	movtls	r9, #8
     9bc:	93419004 	movtls	r9, #4100	; 0x1004
     9c0:	00740e04 	rsbseq	r0, r4, r4, lsl #28
     9c4:	25f72cf7 	ldrbcs	r2, [r7, #3319]!	; 0xcf7
     9c8:	1e2552f5 	mcrne	2, 1, r5, cr5, cr5, {7}
     9cc:	1b2550f5 	blne	954da8 <__bss_end__+0x942a64>
     9d0:	94982e00 	ldrls	r2, [r8], #3584	; 0xe00
     9d4:	188a0000 	stmne	sl, {}	; <UNPREDICTABLE>
     9d8:	09f80000 	ldmibeq	r8!, {}^	; <UNPREDICTABLE>
     9dc:	08290000 	stmdaeq	r9!, {}	; <UNPREDICTABLE>
     9e0:	04934090 	ldreq	r4, [r3], #144	; 0x90
     9e4:	04934190 	ldreq	r4, [r3], #400	; 0x190
     9e8:	f77c760e 			; <UNDEFINED> instruction: 0xf77c760e
     9ec:	f525f72c 			; <UNDEFINED> instruction: 0xf525f72c
     9f0:	f51e2552 			; <UNDEFINED> instruction: 0xf51e2552
     9f4:	001b2550 	andseq	r2, fp, r0, asr r5
     9f8:	0094b22e 	addseq	fp, r4, lr, lsr #4
     9fc:	00188a00 	andseq	r8, r8, r0, lsl #20
     a00:	000a1f00 	andeq	r1, sl, r0, lsl #30
     a04:	90082900 	andls	r2, r8, r0, lsl #18
     a08:	90049340 	andls	r9, r4, r0, asr #6
     a0c:	0e049341 	cdpeq	3, 0, cr9, cr4, cr1, {2}
     a10:	2cf70274 	lfmcs	f0, 2, [r7], #464	; 0x1d0
     a14:	52f525f7 	rscspl	r2, r5, #1035993088	; 0x3dc00000
     a18:	50f51e25 	rscspl	r1, r5, r5, lsr #28
     a1c:	2e001b25 	vmlacs.f64	d1, d0, d21
     a20:	000094ce 	andeq	r9, r0, lr, asr #9
     a24:	0000188a 	andeq	r1, r0, sl, lsl #17
     a28:	00000a46 	andeq	r0, r0, r6, asr #20
     a2c:	40900829 	addsmi	r0, r0, r9, lsr #16
     a30:	41900493 			; <UNDEFINED> instruction: 0x41900493
     a34:	740e0493 	strvc	r0, [lr], #-1171	; 0x493
     a38:	f72cf77f 			; <UNDEFINED> instruction: 0xf72cf77f
     a3c:	2552f525 	ldrbcs	pc, [r2, #-1317]	; 0x525	; <UNPREDICTABLE>
     a40:	2550f51e 	ldrbcs	pc, [r0, #-1310]	; 0x51e	; <UNPREDICTABLE>
     a44:	f42e001b 	vld4.8	{d0-d3}, [lr :64], fp
     a48:	8a000094 	bhi	ca0 <shift+0xca0>
     a4c:	6d000018 	stcvs	0, cr0, [r0, #-96]	; 0xffffffa0
     a50:	2900000a 	stmdbcs	r0, {r1, r3}
     a54:	93409008 	movtls	r9, #8
     a58:	93419004 	movtls	r9, #4100	; 0x1004
     a5c:	7f740e04 	svcvc	0x00740e04
     a60:	25f733f7 	ldrbcs	r3, [r7, #1015]!	; 0x3f7
     a64:	1e2552f5 	mcrne	2, 1, r5, cr5, cr5, {7}
     a68:	1b2550f5 	blne	954e44 <__bss_end__+0x942b00>
     a6c:	95262800 	strls	r2, [r6, #-2048]!	; 0x800
     a70:	189f0000 	ldmne	pc, {}	; <UNPREDICTABLE>
     a74:	01290000 	teqeq	r9, r0
     a78:	d4030553 	strle	r0, [r3], #-1363	; 0x553
     a7c:	2900009f 	stmdbcs	r0, {r0, r1, r2, r3, r4, r7}
     a80:	08025201 	stmdaeq	r2, {r0, r9, ip, lr}
     a84:	5101293b 	tstpl	r1, fp, lsr r9
     a88:	9ff00305 	svcls	0x00f00305
     a8c:	01290000 	teqeq	r9, r0
     a90:	e8030550 	stmda	r3, {r4, r6, r8, sl}
     a94:	0000009f 	muleq	r0, pc, r0	; <UNPREDICTABLE>
     a98:	00b80b00 	adcseq	r0, r8, r0, lsl #22
     a9c:	0aa90000 	beq	fea40aa4 <__bss_end__+0xfea2e760>
     aa0:	9e0c0000 	cdpls	0, 0, cr0, cr12, cr0, {0}
     aa4:	06000000 	streq	r0, [r0], -r0
     aa8:	0a990d00 	beq	fe643eb0 <__bss_end__+0xfe631b6c>
     aac:	a1330000 	teqge	r3, r0
     ab0:	30000006 	andcc	r0, r0, r6
     ab4:	00000095 	muleq	r0, r5, r0
     ab8:	01000001 	tsteq	r0, r1
     abc:	000b139c 	muleq	fp, ip, r3
     ac0:	06ad3400 	strteq	r3, [sp], r0, lsl #8
     ac4:	01270000 	teqeq	r7, r0
     ac8:	b6340000 	ldrtlt	r0, [r4], -r0
     acc:	5e000006 	cdppl	0, 0, cr0, cr0, cr6, {0}
     ad0:	34000001 	strcc	r0, [r0], #-1
     ad4:	000006bf 			; <UNDEFINED> instruction: 0x000006bf
     ad8:	00000187 	andeq	r0, r0, r7, lsl #3
     adc:	0006ca35 	andeq	ip, r6, r5, lsr sl
     ae0:	0001d500 	andeq	sp, r1, r0, lsl #10
     ae4:	955e2f00 	ldrbls	r2, [lr, #-3840]	; 0xf00
     ae8:	18bf0000 	ldmne	pc!, {}	; <UNPREDICTABLE>
     aec:	862f0000 	strthi	r0, [pc], -r0
     af0:	bf000095 	svclt	0x00000095
     af4:	2f000018 	svccs	0x00000018
     af8:	000095a6 	andeq	r9, r0, r6, lsr #11
     afc:	000018bf 			; <UNDEFINED> instruction: 0x000018bf
     b00:	0095c62f 	addseq	ip, r5, pc, lsr #12
     b04:	0018bf00 	andseq	fp, r8, r0, lsl #30
     b08:	95fa2f00 	ldrbls	r2, [sl, #3840]!	; 0xf00
     b0c:	18bf0000 	ldmne	pc!, {}	; <UNPREDICTABLE>
     b10:	36000000 	strcc	r0, [r0], -r0
     b14:	000006d4 	ldrdeq	r0, [r0], -r4
     b18:	00009630 	andeq	r9, r0, r0, lsr r6
     b1c:	000001f0 	strdeq	r0, [r0], -r0	; <UNPREDICTABLE>
     b20:	0bc99c01 	bleq	ff267b2c <__bss_end__+0xff2557e8>
     b24:	e0340000 	eors	r0, r4, r0
     b28:	3d000006 	stccc	0, cr0, [r0, #-24]	; 0xffffffe8
     b2c:	34000002 	strcc	r0, [r0], #-2
     b30:	000006eb 	andeq	r0, r0, fp, ror #13
     b34:	00000271 	andeq	r0, r0, r1, ror r2
     b38:	0006f434 	andeq	pc, r6, r4, lsr r4	; <UNPREDICTABLE>
     b3c:	0002a500 	andeq	sl, r2, r0, lsl #10
     b40:	06ff3400 	ldrbteq	r3, [pc], r0, lsl #8
     b44:	03030000 	movweq	r0, #12288	; 0x3000
     b48:	0a340000 	beq	d00b50 <__bss_end__+0xcee80c>
     b4c:	3b000007 	blcc	b70 <shift+0xb70>
     b50:	34000003 	strcc	r0, [r0], #-3
     b54:	00000713 	andeq	r0, r0, r3, lsl r7
     b58:	0000036f 	andeq	r0, r0, pc, ror #6
     b5c:	00071e35 	andeq	r1, r7, r5, lsr lr
     b60:	00038f00 	andeq	r8, r3, r0, lsl #30
     b64:	06a13700 	strteq	r3, [r1], r0, lsl #14
     b68:	96340000 	ldrtls	r0, [r4], -r0
     b6c:	00000000 	andeq	r0, r0, r0
     b70:	53010000 	movwpl	r0, #4096	; 0x1000
     b74:	0006bf38 	andeq	fp, r6, r8, lsr pc
     b78:	06b63400 	ldrteq	r3, [r6], r0, lsl #8
     b7c:	040a0000 	streq	r0, [sl], #-0
     b80:	ad340000 	ldcge	0, cr0, [r4, #-0]
     b84:	3e000006 	cdpcc	0, 0, cr0, cr0, cr6, {0}
     b88:	39000004 	stmdbcc	r0, {r2}
     b8c:	00000000 	andeq	r0, r0, r0
     b90:	0006ca35 	andeq	ip, r6, r5, lsr sl
     b94:	00047200 	andeq	r7, r4, r0, lsl #4
     b98:	966a2f00 	strbtls	r2, [sl], -r0, lsl #30
     b9c:	18bf0000 	ldmne	pc!, {}	; <UNPREDICTABLE>
     ba0:	962f0000 	strtls	r0, [pc], -r0
     ba4:	bf000096 	svclt	0x00000096
     ba8:	2f000018 	svccs	0x00000018
     bac:	000096b6 			; <UNDEFINED> instruction: 0x000096b6
     bb0:	000018bf 			; <UNDEFINED> instruction: 0x000018bf
     bb4:	0096d62f 	addseq	sp, r6, pc, lsr #12
     bb8:	0018bf00 	andseq	fp, r8, r0, lsl #30
     bbc:	970c2f00 	strls	r2, [ip, -r0, lsl #30]
     bc0:	18bf0000 	ldmne	pc!, {}	; <UNPREDICTABLE>
     bc4:	00000000 	andeq	r0, r0, r0
     bc8:	05c63300 	strbeq	r3, [r6, #768]	; 0x300
     bcc:	98200000 	stmdals	r0!, {}	; <UNPREDICTABLE>
     bd0:	00f20000 	rscseq	r0, r2, r0
     bd4:	9c010000 	stcls	0, cr0, [r1], {-0}
     bd8:	00000bff 	strdeq	r0, [r0], -pc	; <UNPREDICTABLE>
     bdc:	0005d634 	andeq	sp, r5, r4, lsr r6
     be0:	0004da00 	andeq	sp, r4, r0, lsl #20
     be4:	05e13a00 	strbeq	r3, [r1, #2560]!	; 0xa00
     be8:	51010000 	mrspl	r0, (UNDEF: 1)
     bec:	0005ea35 	andeq	lr, r5, r5, lsr sl
     bf0:	00051400 	andeq	r1, r5, r0, lsl #8
     bf4:	05f33500 	ldrbeq	r3, [r3, #1280]!	; 0x500
     bf8:	054a0000 	strbeq	r0, [sl, #-0]
     bfc:	33000000 	movwcc	r0, #0
     c00:	00000728 	andeq	r0, r0, r8, lsr #14
     c04:	00009914 	andeq	r9, r0, r4, lsl r9
     c08:	000001c0 	andeq	r0, r0, r0, asr #3
     c0c:	0cb99c01 	ldceq	12, cr9, [r9], #4
     c10:	34340000 	ldrtcc	r0, [r4], #-0
     c14:	80000007 	andhi	r0, r0, r7
     c18:	34000005 	strcc	r0, [r0], #-5
     c1c:	0000073f 	andeq	r0, r0, pc, lsr r7
     c20:	0000059e 	muleq	r0, lr, r5
     c24:	00074834 	andeq	r4, r7, r4, lsr r8
     c28:	0005d200 	andeq	sp, r5, r0, lsl #4
     c2c:	07533400 	ldrbeq	r3, [r3, -r0, lsl #8]
     c30:	060c0000 	streq	r0, [ip], -r0
     c34:	5c3b0000 	ldcpl	0, cr0, [fp], #-0
     c38:	35000007 	strcc	r0, [r0, #-7]
     c3c:	00000765 	andeq	r0, r0, r5, ror #14
     c40:	00000640 	andeq	r0, r0, r0, asr #12
     c44:	00076e35 	andeq	r6, r7, r5, lsr lr
     c48:	00069900 	andeq	r9, r6, r0, lsl #18
     c4c:	05c63c00 	strbeq	r3, [r6, #3072]	; 0xc00
     c50:	99180000 	ldmdbls	r8, {}	; <UNPREDICTABLE>
     c54:	00200000 	eoreq	r0, r0, r0
     c58:	68010000 	stmdavs	r1, {}	; <UNPREDICTABLE>
     c5c:	00000c8b 	andeq	r0, r0, fp, lsl #25
     c60:	0005e134 	andeq	lr, r5, r4, lsr r1
     c64:	0006c500 	andeq	ip, r6, r0, lsl #10
     c68:	05d63400 	ldrbeq	r3, [r6, #1024]	; 0x400
     c6c:	06f90000 	ldrbteq	r0, [r9], r0
     c70:	20390000 	eorscs	r0, r9, r0
     c74:	35000000 	strcc	r0, [r0, #-0]
     c78:	000005ea 	andeq	r0, r0, sl, ror #11
     c7c:	00000717 	andeq	r0, r0, r7, lsl r7
     c80:	0005f335 	andeq	pc, r5, r5, lsr r3	; <UNPREDICTABLE>
     c84:	00074d00 	andeq	r4, r7, r0, lsl #26
     c88:	2f000000 	svccs	0x00000000
     c8c:	00009a3c 	andeq	r9, r0, ip, lsr sl
     c90:	000018cb 	andeq	r1, r0, fp, asr #17
     c94:	009a562f 	addseq	r5, sl, pc, lsr #12
     c98:	0018cb00 	andseq	ip, r8, r0, lsl #22
     c9c:	9a702f00 	bls	1c0c8a4 <__bss_end__+0x1bfa560>
     ca0:	18cb0000 	stmiane	fp, {}^	; <UNPREDICTABLE>
     ca4:	8a2f0000 	bhi	bc0cac <__bss_end__+0xbae968>
     ca8:	cb00009a 	blgt	f18 <shift+0xf18>
     cac:	2f000018 	svccs	0x00000018
     cb0:	00009ab0 			; <UNDEFINED> instruction: 0x00009ab0
     cb4:	000018cb 	andeq	r1, r0, fp, asr #17
     cb8:	04ef3000 	strbteq	r3, [pc], #0	; cc0 <shift+0xcc0>
     cbc:	76010000 	strvc	r0, [r1], -r0
     cc0:	00009ad4 	ldrdeq	r9, [r0], -r4
     cc4:	0000003c 	andeq	r0, r0, ip, lsr r0
     cc8:	0d589c01 	ldcleq	12, cr9, [r8, #-4]
     ccc:	73310000 	teqvc	r1, #0
     cd0:	01006769 	tsteq	r0, r9, ror #14
     cd4:	0005a576 	andeq	sl, r5, r6, ror r5
     cd8:	00076d00 	andeq	r6, r7, r0, lsl #26
     cdc:	00733100 	rsbseq	r3, r3, r0, lsl #2
     ce0:	05bb7601 	ldreq	r7, [fp, #1537]!	; 0x601
     ce4:	07990000 	ldreq	r0, [r9, r0]
     ce8:	713d0000 	teqvc	sp, r0
     cec:	01000003 	tsteq	r0, r3
     cf0:	0000b277 	andeq	fp, r0, r7, ror r2
     cf4:	0007c500 	andeq	ip, r7, r0, lsl #10
     cf8:	00692d00 	rsbeq	r2, r9, r0, lsl #26
     cfc:	05bb7801 	ldreq	r7, [fp, #2049]!	; 0x801
     d00:	07e60000 	strbeq	r0, [r6, r0]!
     d04:	662d0000 	strtvs	r0, [sp], -r0
     d08:	58790100 	ldmdapl	r9!, {r8}^
     d0c:	3000000d 	andcc	r0, r0, sp
     d10:	2e000008 	cdpcs	0, 0, cr0, cr0, cr8, {0}
     d14:	00009ae8 	andeq	r9, r0, r8, ror #21
     d18:	000018e0 	andeq	r1, r0, r0, ror #17
     d1c:	00000d31 	andeq	r0, r0, r1, lsr sp
     d20:	05510129 	ldrbeq	r0, [r1, #-297]	; 0x129
     d24:	009ffc03 	addseq	pc, pc, r3, lsl #24
     d28:	50012900 	andpl	r2, r1, r0, lsl #18
     d2c:	5201f303 	andpl	pc, r1, #201326592	; 0xc000000
     d30:	9b022e00 	blls	8c538 <__bss_end__+0x7a1f4>
     d34:	18fb0000 	ldmne	fp!, {}^	; <UNPREDICTABLE>
     d38:	0d4e0000 	stcleq	0, cr0, [lr, #-0]
     d3c:	01290000 	teqeq	r9, r0
     d40:	00030551 	andeq	r0, r3, r1, asr r5
     d44:	290000a0 	stmdbcs	r0, {r5, r7}
     d48:	75025001 	strvc	r5, [r2, #-1]
     d4c:	102a0000 	eorne	r0, sl, r0
     d50:	1700009b 			; <UNDEFINED> instruction: 0x1700009b
     d54:	00000019 	andeq	r0, r0, r9, lsl r0
     d58:	00bf0406 	adcseq	r0, pc, r6, lsl #8
     d5c:	7a360000 	bvc	d80d64 <__bss_end__+0xd6ea20>
     d60:	10000007 	andne	r0, r0, r7
     d64:	9000009b 	mulls	r0, fp, r0
     d68:	01000000 	mrseq	r0, (UNDEF: 0)
     d6c:	000dde9c 	muleq	sp, ip, lr
     d70:	07863400 	streq	r3, [r6, r0, lsl #8]
     d74:	08590000 	ldmdaeq	r9, {}^	; <UNPREDICTABLE>
     d78:	91340000 	teqls	r4, r0
     d7c:	90000007 	andls	r0, r0, r7
     d80:	34000008 	strcc	r0, [r0], #-8
     d84:	0000079c 	muleq	r0, ip, r7
     d88:	000008b1 			; <UNDEFINED> instruction: 0x000008b1
     d8c:	0007a734 	andeq	sl, r7, r4, lsr r7
     d90:	0008e800 	andeq	lr, r8, r0, lsl #16
     d94:	07b23400 	ldreq	r3, [r2, r0, lsl #8]!
     d98:	09070000 	stmdbeq	r7, {}	; <UNPREDICTABLE>
     d9c:	bd340000 	ldclt	0, cr0, [r4, #-0]
     da0:	27000007 	strcs	r0, [r0, -r7]
     da4:	35000009 	strcc	r0, [r0, #-9]
     da8:	000007c6 	andeq	r0, r0, r6, asr #15
     dac:	00000947 	andeq	r0, r0, r7, asr #18
     db0:	0007cf35 	andeq	ip, r7, r5, lsr pc
     db4:	00095b00 	andeq	r5, r9, r0, lsl #22
     db8:	07d83500 	ldrbeq	r3, [r8, r0, lsl #10]
     dbc:	09860000 	stmibeq	r6, {}	; <UNPREDICTABLE>
     dc0:	e1350000 	teq	r5, r0
     dc4:	9a000007 	bls	de8 <shift+0xde8>
     dc8:	35000009 	strcc	r0, [r0, #-9]
     dcc:	000007ec 	andeq	r0, r0, ip, ror #15
     dd0:	000009b9 			; <UNDEFINED> instruction: 0x000009b9
     dd4:	0007f735 	andeq	pc, r7, r5, lsr r7	; <UNPREDICTABLE>
     dd8:	0009f100 	andeq	pc, r9, r0, lsl #2
     ddc:	61330000 	teqvs	r3, r0
     de0:	a0000006 	andge	r0, r0, r6
     de4:	1a00009b 	bne	1058 <shift+0x1058>
     de8:	01000000 	mrseq	r0, (UNDEF: 0)
     dec:	000dfb9c 	muleq	sp, ip, fp
     df0:	06713400 	ldrbteq	r3, [r1], -r0, lsl #8
     df4:	0a110000 	beq	440dfc <__bss_end__+0x42eab8>
     df8:	33000000 	movwcc	r0, #0
     dfc:	00000605 	andeq	r0, r0, r5, lsl #12
     e00:	00009bbc 			; <UNDEFINED> instruction: 0x00009bbc
     e04:	00000008 	andeq	r0, r0, r8
     e08:	0e169c01 	cdpeq	12, 1, cr9, cr6, cr1, {0}
     e0c:	113a0000 	teqne	sl, r0
     e10:	01000006 	tsteq	r0, r6
     e14:	95300050 	ldrls	r0, [r0, #-80]!	; 0x50
     e18:	01000005 	tsteq	r0, r5
     e1c:	009bc4dc 			; <UNDEFINED> instruction: 0x009bc4dc
     e20:	00001400 	andeq	r1, r0, r0, lsl #8
     e24:	609c0100 	addsvs	r0, ip, r0, lsl #2
     e28:	3e00000e 	cdpcc	0, 0, cr0, cr0, cr14, {0}
     e2c:	0000047e 	andeq	r0, r0, lr, ror r4
     e30:	061ddc01 	ldreq	sp, [sp], -r1, lsl #24
     e34:	50010000 	andpl	r0, r1, r0
     e38:	0004863e 	andeq	r8, r4, lr, lsr r6
     e3c:	33dd0100 	bicscc	r0, sp, #0, 2
     e40:	01000000 	mrseq	r0, (UNDEF: 0)
     e44:	02f53e51 	rscseq	r3, r5, #1296	; 0x510
     e48:	de010000 	cdple	0, 0, cr0, cr1, cr0, {0}
     e4c:	00000033 	andeq	r0, r0, r3, lsr r0
     e50:	343e5201 	ldrtcc	r5, [lr], #-513	; 0x201
     e54:	01000005 	tsteq	r0, r5
     e58:	000033df 	ldrdeq	r3, [r0], -pc	; <UNPREDICTABLE>
     e5c:	00530100 	subseq	r0, r3, r0, lsl #2
     e60:	00062833 	andeq	r2, r6, r3, lsr r8
     e64:	009bd800 	addseq	sp, fp, r0, lsl #16
     e68:	00001600 	andeq	r1, r0, r0, lsl #12
     e6c:	909c0100 	addsls	r0, ip, r0, lsl #2
     e70:	3a00000e 	bcc	eb0 <shift+0xeb0>
     e74:	00000634 	andeq	r0, r0, r4, lsr r6
     e78:	3f3a5001 	svccc	0x003a5001
     e7c:	01000006 	tsteq	r0, r6
     e80:	064a3a51 			; <UNDEFINED> instruction: 0x064a3a51
     e84:	52010000 	andpl	r0, r1, #0
     e88:	0006553a 	andeq	r5, r6, sl, lsr r5
     e8c:	00530100 	subseq	r0, r3, r0, lsl #2
     e90:	0005033f 	andeq	r0, r5, pc, lsr r3
     e94:	01020100 	mrseq	r0, (UNDEF: 18)
     e98:	00009bf0 	strdeq	r9, [r0], -r0
     e9c:	000000f0 	strdeq	r0, [r0], -r0	; <UNPREDICTABLE>
     ea0:	0f899c01 	svceq	0x00899c01
     ea4:	73220000 	teqvc	r2, #0
     ea8:	01006769 	tsteq	r0, r9, ror #14
     eac:	05a50103 	streq	r0, [r5, #259]!	; 0x103
     eb0:	0a2f0000 	beq	bc0eb8 <__bss_end__+0xbaeb74>
     eb4:	ee400000 	cdp	0, 4, cr0, cr0, cr0, {0}
     eb8:	01000005 	tsteq	r0, r5
     ebc:	05bb0104 	ldreq	r0, [fp, #260]!	; 0x104
     ec0:	0a500000 	beq	1400ec8 <__bss_end__+0x13eeb84>
     ec4:	80400000 	subhi	r0, r0, r0
     ec8:	01000002 	tsteq	r0, r2
     ecc:	05bb0105 	ldreq	r0, [fp, #261]!	; 0x105
     ed0:	0a710000 	beq	1c40ed8 <__bss_end__+0x1c2eb94>
     ed4:	07400000 	strbeq	r0, [r0, -r0]
     ed8:	01000006 	tsteq	r0, r6
     edc:	05a50106 	streq	r0, [r5, #262]!	; 0x106
     ee0:	0a920000 	beq	fe480ee8 <__bss_end__+0xfe46eba4>
     ee4:	78410000 	stmdavc	r1, {}^	; <UNPREDICTABLE>
     ee8:	01000002 	tsteq	r0, r2
     eec:	05bb0107 	ldreq	r0, [fp, #263]!	; 0x107
     ef0:	91020000 	mrsls	r0, (UNDEF: 2)
     ef4:	00632300 	rsbeq	r2, r3, r0, lsl #6
     ef8:	03010801 	movweq	r0, #6145	; 0x1801
     efc:	02000008 	andeq	r0, r0, #8
     f00:	69240491 	stmdbvs	r4!, {r0, r4, r7, sl}
     f04:	010a0100 	mrseq	r0, (UNDEF: 26)
     f08:	000005bb 			; <UNDEFINED> instruction: 0x000005bb
     f0c:	00000abe 			; <UNDEFINED> instruction: 0x00000abe
     f10:	0002f042 	andeq	pc, r2, r2, asr #32
     f14:	010c0100 	mrseq	r0, (UNDEF: 28)
     f18:	00000033 	andeq	r0, r0, r3, lsr r0
     f1c:	00000b02 	andeq	r0, r0, r2, lsl #22
     f20:	00062843 	andeq	r2, r6, r3, asr #16
     f24:	009c1a00 	addseq	r1, ip, r0, lsl #20
     f28:	00004000 	andeq	r4, r0, r0
     f2c:	011f0100 	tsteq	pc, r0, lsl #2
     f30:	00000f54 	andeq	r0, r0, r4, asr pc
     f34:	00065544 	andeq	r5, r6, r4, asr #10
     f38:	4a458000 	bmi	1160f40 <__bss_end__+0x114ebfc>
     f3c:	00000006 	andeq	r0, r0, r6
     f40:	34000200 	strcc	r0, [r0], #-512	; 0x200
     f44:	0000063f 	andeq	r0, r0, pc, lsr r6
     f48:	00000bdb 	ldrdeq	r0, [r0], -fp
     f4c:	0006343a 	andeq	r3, r6, sl, lsr r4
     f50:	00520100 	subseq	r0, r2, r0, lsl #2
     f54:	00060543 	andeq	r0, r6, r3, asr #10
     f58:	009c2e00 	addseq	r2, ip, r0, lsl #28
     f5c:	00007000 	andeq	r7, r0, r0
     f60:	011e0100 	tsteq	lr, r0, lsl #2
     f64:	00000f70 	andeq	r0, r0, r0, ror pc
     f68:	0006113a 	andeq	r1, r6, sl, lsr r1
     f6c:	00520100 	subseq	r0, r2, r0, lsl #2
     f70:	00066146 	andeq	r6, r6, r6, asr #2
     f74:	009cba00 	addseq	fp, ip, r0, lsl #20
     f78:	00008800 	andeq	r8, r0, r0, lsl #16
     f7c:	01240100 	teqeq	r4, r0, lsl #2
     f80:	0006713a 	andeq	r7, r6, sl, lsr r1
     f84:	00520100 	subseq	r0, r2, r0, lsl #2
     f88:	067d3300 	ldrbteq	r3, [sp], -r0, lsl #6
     f8c:	9ce00000 	stclls	0, cr0, [r0]
     f90:	001a0000 	andseq	r0, sl, r0
     f94:	9c010000 	stcls	0, cr0, [r1], {-0}
     f98:	00000fc9 	andeq	r0, r0, r9, asr #31
     f9c:	00068e34 	andeq	r8, r6, r4, lsr lr
     fa0:	000bfc00 	andeq	pc, fp, r0, lsl #24
     fa4:	9cf42800 	ldclls	8, cr2, [r4]
     fa8:	192c0000 	stmdbne	ip!, {}	; <UNPREDICTABLE>
     fac:	01290000 	teqeq	r9, r0
     fb0:	e9030553 	stmdb	r3, {r0, r1, r4, r6, r8, sl}
     fb4:	29000093 	stmdbcs	r0, {r0, r1, r4, r7}
     fb8:	38015201 	stmdacc	r1, {r0, r9, ip, lr}
     fbc:	01510129 	cmpeq	r1, r9, lsr #2
     fc0:	50012935 	andpl	r2, r1, r5, lsr r9
     fc4:	00007402 	andeq	r7, r0, r2, lsl #8
     fc8:	07dd4700 	ldrbeq	r4, [sp, r0, lsl #14]
     fcc:	24010000 	strcs	r0, [r1], #-0
     fd0:	00000068 	andeq	r0, r0, r8, rrx
     fd4:	000fe503 	andeq	lr, pc, r3, lsl #10
     fd8:	08142000 	ldmdaeq	r4, {sp}
     fdc:	25010000 	strcs	r0, [r1, #-0]
     fe0:	00000068 	andeq	r0, r0, r8, rrx
     fe4:	07f34800 	ldrbeq	r4, [r3, r0, lsl #16]!
     fe8:	59010000 	stmdbpl	r1, {}	; <UNPREDICTABLE>
     fec:	00002c01 	andeq	r2, r0, r1, lsl #24
     ff0:	00878400 	addeq	r8, r7, r0, lsl #8
     ff4:	000b8200 	andeq	r8, fp, r0, lsl #4
     ff8:	499c0100 	ldmibmi	ip, {r8}
     ffc:	42000017 	andmi	r0, r0, #23
    1000:	000002ce 	andeq	r0, r0, lr, asr #5
    1004:	a5015a01 	strge	r5, [r1, #-2561]	; 0xa01
    1008:	1a000000 	bne	1010 <shift+0x1010>
    100c:	2400000c 	strcs	r0, [r0], #-12
    1010:	5b010069 	blpl	411bc <__bss_end__+0x2ee78>
    1014:	0005bb01 	andeq	fp, r5, r1, lsl #22
    1018:	000c4d00 	andeq	r4, ip, r0, lsl #26
    101c:	006a2400 	rsbeq	r2, sl, r0, lsl #8
    1020:	bb015b01 	bllt	57c2c <__bss_end__+0x458e8>
    1024:	e1000005 	tst	r0, r5
    1028:	4900000c 	stmdbmi	r0, {r2, r3}
    102c:	000005e9 	andeq	r0, r0, r9, ror #11
    1030:	49015c01 	stmdbmi	r1, {r0, sl, fp, ip, lr}
    1034:	04000017 	streq	r0, [r0], #-23
    1038:	7fb59891 	svcvc	0x00b59891
    103c:	67697325 	strbvs	r7, [r9, -r5, lsr #6]!
    1040:	015d0100 	cmpeq	sp, r0, lsl #2
    1044:	00001759 	andeq	r1, r0, r9, asr r7
    1048:	b7989104 	ldrlt	r9, [r8, r4, lsl #2]
    104c:	075c497f 			; <UNDEFINED> instruction: 0x075c497f
    1050:	5e010000 	cdppl	0, 0, cr0, cr1, cr0, {0}
    1054:	00176901 	andseq	r6, r7, r1, lsl #18
    1058:	98910400 	ldmls	r1, {sl}
    105c:	e6497fb6 			; <UNDEFINED> instruction: 0xe6497fb6
    1060:	01000005 	tsteq	r0, r5
    1064:	17790160 	ldrbne	r0, [r9, -r0, ror #2]!
    1068:	91040000 	mrsls	r0, (UNDEF: 4)
    106c:	497fb4b8 	ldmdbmi	pc!, {r3, r4, r5, r7, sl, ip, sp, pc}^	; <UNPREDICTABLE>
    1070:	00000761 	andeq	r0, r0, r1, ror #14
    1074:	89016101 	stmdbhi	r1, {r0, r8, sp, lr}
    1078:	04000017 	streq	r0, [r0], #-23
    107c:	7fbf9891 	svcvc	0x00bf9891
    1080:	00004449 	andeq	r4, r0, r9, asr #8
    1084:	01620100 	cmneq	r2, r0, lsl #2
    1088:	00001789 	andeq	r1, r0, r9, lsl #15
    108c:	5f989103 	svcpl	0x00989103
    1090:	00063942 	andeq	r3, r6, r2, asr #18
    1094:	01660100 	cmneq	r6, r0, lsl #2
    1098:	0000002c 	andeq	r0, r0, ip, lsr #32
    109c:	00000d5e 	andeq	r0, r0, lr, asr sp
    10a0:	00042d42 	andeq	r2, r4, r2, asr #26
    10a4:	01930100 	orrseq	r0, r3, r0, lsl #2
    10a8:	00000033 	andeq	r0, r0, r3, lsr r0
    10ac:	00000d98 	muleq	r0, r8, sp
    10b0:	00034b49 	andeq	r4, r3, r9, asr #22
    10b4:	01c90100 	biceq	r0, r9, r0, lsl #2
    10b8:	0000179a 	muleq	r0, sl, r7
    10bc:	b4c89104 	strblt	r9, [r8], #260	; 0x104
    10c0:	08384a7f 	ldmdaeq	r8!, {r0, r1, r2, r3, r4, r5, r6, r9, fp, lr}
    10c4:	ca010000 	bgt	410cc <__bss_end__+0x2ed88>
    10c8:	00003301 	andeq	r3, r0, r1, lsl #6
    10cc:	004f4900 	subeq	r4, pc, r0, lsl #18
    10d0:	ea010000 	b	410d8 <__bss_end__+0x2ed94>
    10d4:	00179a01 	andseq	r9, r7, r1, lsl #20
    10d8:	f0910400 			; <UNDEFINED> instruction: 0xf0910400
    10dc:	28427fb4 	stmdacs	r2, {r2, r4, r5, r7, r8, r9, sl, fp, ip, sp, lr}^
    10e0:	01000006 	tsteq	r0, r6
    10e4:	003301ff 	ldrshteq	r0, [r3], -pc
    10e8:	0dba0000 	ldceq	0, cr0, [sl]
    10ec:	d4430000 	strble	r0, [r3], #-0
    10f0:	2e000006 	cdpcs	0, 0, cr0, cr0, cr6, {0}
    10f4:	a0000088 	andge	r0, r0, r8, lsl #1
    10f8:	01000000 	mrseq	r0, (UNDEF: 0)
    10fc:	119f01a8 	orrsne	r0, pc, r8, lsr #3
    1100:	eb340000 	bl	d01108 <__bss_end__+0xceedc4>
    1104:	f8000006 			; <UNDEFINED> instruction: 0xf8000006
    1108:	3400000d 	strcc	r0, [r0], #-13
    110c:	0000070a 	andeq	r0, r0, sl, lsl #14
    1110:	00000e1a 	andeq	r0, r0, sl, lsl lr
    1114:	00071334 	andeq	r1, r7, r4, lsr r3
    1118:	000e3a00 	andeq	r3, lr, r0, lsl #20
    111c:	06ff3400 	ldrbteq	r3, [pc], r0, lsl #8
    1120:	0e5c0000 	cdpeq	0, 5, cr0, cr12, cr0, {0}
    1124:	f4380000 			; <UNDEFINED> instruction: 0xf4380000
    1128:	34000006 	strcc	r0, [r0], #-6
    112c:	000006e0 	andeq	r0, r0, r0, ror #13
    1130:	00000e8d 	andeq	r0, r0, sp, lsl #29
    1134:	0000a039 	andeq	sl, r0, r9, lsr r0
    1138:	071e3500 	ldreq	r3, [lr, -r0, lsl #10]
    113c:	0f0c0000 	svceq	0x000c0000
    1140:	a1370000 	teqge	r7, r0
    1144:	2e000006 	cdpcs	0, 0, cr0, cr0, cr6, {0}
    1148:	c0000088 	andgt	r0, r0, r8, lsl #1
    114c:	01000000 	mrseq	r0, (UNDEF: 0)
    1150:	06b63853 	ssateq	r3, #23, r3, asr #16
    1154:	bf380000 	svclt	0x00380000
    1158:	38000006 	stmdacc	r0, {r1, r2}
    115c:	000006ad 	andeq	r0, r0, sp, lsr #13
    1160:	0000c039 	andeq	ip, r0, r9, lsr r0
    1164:	06ca3500 	strbeq	r3, [sl], r0, lsl #10
    1168:	0fb00000 	svceq	0x00b00000
    116c:	922f0000 	eorls	r0, pc, #0
    1170:	bf000088 	svclt	0x00000088
    1174:	2f000018 	svccs	0x00000018
    1178:	000088b8 			; <UNDEFINED> instruction: 0x000088b8
    117c:	000018bf 			; <UNDEFINED> instruction: 0x000018bf
    1180:	0088d82f 	addeq	sp, r8, pc, lsr #16
    1184:	0018bf00 	andseq	fp, r8, r0, lsl #30
    1188:	88f82f00 	ldmhi	r8!, {r8, r9, sl, fp, sp}^
    118c:	18bf0000 	ldmne	pc!, {}	; <UNPREDICTABLE>
    1190:	282f0000 	stmdacs	pc!, {}	; <UNPREDICTABLE>
    1194:	bf000089 	svclt	0x00000089
    1198:	00000018 	andeq	r0, r0, r8, lsl r0
    119c:	43000000 	movwmi	r0, #0
    11a0:	00000728 	andeq	r0, r0, r8, lsr #14
    11a4:	00008836 	andeq	r8, r0, r6, lsr r8
    11a8:	000000e0 	andeq	r0, r0, r0, ror #1
    11ac:	4801b001 	stmdami	r1, {r0, ip, sp, pc}
    11b0:	38000012 	stmdacc	r0, {r1, r4}
    11b4:	0000073f 	andeq	r0, r0, pc, lsr r7
    11b8:	00074838 	andeq	r4, r7, r8, lsr r8
    11bc:	07533800 	ldrbeq	r3, [r3, -r0, lsl #16]
    11c0:	34380000 	ldrtcc	r0, [r8], #-0
    11c4:	39000007 	stmdbcc	r0, {r0, r1, r2}
    11c8:	000000e0 	andeq	r0, r0, r0, ror #1
    11cc:	00075c3b 	andeq	r5, r7, fp, lsr ip
    11d0:	07653500 	strbeq	r3, [r5, -r0, lsl #10]!
    11d4:	10010000 	andne	r0, r1, r0
    11d8:	6e350000 	cdpvs	0, 3, cr0, cr5, cr0, {0}
    11dc:	6c000007 	stcvs	0, cr0, [r0], {7}
    11e0:	4b000010 	blmi	1228 <shift+0x1228>
    11e4:	000005c6 	andeq	r0, r0, r6, asr #11
    11e8:	00008a56 	andeq	r8, r0, r6, asr sl
    11ec:	000000a8 	andeq	r0, r0, r8, lsr #1
    11f0:	12196801 	andsne	r6, r9, #65536	; 0x10000
    11f4:	e1380000 	teq	r8, r0
    11f8:	38000005 	stmdacc	r0, {r0, r2}
    11fc:	000005d6 	ldrdeq	r0, [r0], -r6
    1200:	008a564c 	addeq	r5, sl, ip, asr #12
    1204:	0000a800 	andeq	sl, r0, r0, lsl #16
    1208:	05ea3500 	strbeq	r3, [sl, #1280]!	; 0x500
    120c:	10980000 	addsne	r0, r8, r0
    1210:	f33b0000 	vhadd.u<illegal width 64>	d0, d11, d0
    1214:	00000005 	andeq	r0, r0, r5
    1218:	8b3a2f00 	blhi	e8ce20 <__bss_end__+0xe7aadc>
    121c:	18cb0000 	stmiane	fp, {}^	; <UNPREDICTABLE>
    1220:	522f0000 	eorpl	r0, pc, #0
    1224:	cb00008b 	blgt	1458 <shift+0x1458>
    1228:	2f000018 	svccs	0x00000018
    122c:	00008b6c 	andeq	r8, r0, ip, ror #22
    1230:	000018cb 	andeq	r1, r0, fp, asr #17
    1234:	008b842f 	addeq	r8, fp, pc, lsr #8
    1238:	0018cb00 	andseq	ip, r8, r0, lsl #22
    123c:	8bd42f00 	blhi	ff50ce44 <__bss_end__+0xff4fab00>
    1240:	18cb0000 	stmiane	fp, {}^	; <UNPREDICTABLE>
    1244:	00000000 	andeq	r0, r0, r0
    1248:	000fc94d 	andeq	ip, pc, sp, asr #18
    124c:	008c2e00 	addeq	r2, ip, r0, lsl #28
    1250:	00002e00 	andeq	r2, r0, r0, lsl #28
    1254:	01cd0100 	biceq	r0, sp, r0, lsl #2
    1258:	00001286 	andeq	r1, r0, r6, lsl #5
    125c:	008c2e4c 	addeq	r2, ip, ip, asr #28
    1260:	00002e00 	andeq	r2, r0, r0, lsl #28
    1264:	0fd94e00 	svceq	0x00d94e00
    1268:	91030000 	mrsls	r0, (UNDEF: 3)
    126c:	46285f98 	qadd8mi	r5, r8, r8
    1270:	5800008c 	stmdapl	r0, {r2, r3, r7}
    1274:	29000018 	stmdbcs	r0, {r3, r4}
    1278:	38015201 	stmdacc	r1, {r0, r9, ip, lr}
    127c:	03510129 	cmpeq	r1, #1073741834	; 0x4000000a
    1280:	005f9891 			; <UNDEFINED> instruction: 0x005f9891
    1284:	7a4d0000 	bvc	134128c <__bss_end__+0x132ef48>
    1288:	70000007 	andvc	r0, r0, r7
    128c:	f200008c 	vhadd.s8	d0, d16, d12
    1290:	01000001 	tsteq	r0, r1
    1294:	130901d1 	movwne	r0, #37329	; 0x91d1
    1298:	91340000 	teqls	r4, r0
    129c:	ab000007 	blge	12c0 <shift+0x12c0>
    12a0:	34000010 	strcc	r0, [r0], #-16
    12a4:	0000079c 	muleq	r0, ip, r7
    12a8:	000010cf 	andeq	r1, r0, pc, asr #1
    12ac:	0007b234 	andeq	fp, r7, r4, lsr r2
    12b0:	0010f100 	andseq	pc, r0, r0, lsl #2
    12b4:	07bd3400 	ldreq	r3, [sp, r0, lsl #8]!
    12b8:	11110000 	tstne	r1, r0
    12bc:	a7340000 	ldrge	r0, [r4, -r0]!
    12c0:	56000007 	strpl	r0, [r0], -r7
    12c4:	34000011 	strcc	r0, [r0], #-17
    12c8:	00000786 	andeq	r0, r0, r6, lsl #15
    12cc:	00001196 	muleq	r0, r6, r1
    12d0:	008c704c 	addeq	r7, ip, ip, asr #32
    12d4:	0001f200 	andeq	pc, r1, r0, lsl #4
    12d8:	07c63500 	strbeq	r3, [r6, r0, lsl #10]
    12dc:	11b80000 			; <UNDEFINED> instruction: 0x11b80000
    12e0:	cf350000 	svcgt	0x00350000
    12e4:	cc000007 	stcgt	0, cr0, [r0], {7}
    12e8:	3b000011 	blcc	1334 <shift+0x1334>
    12ec:	000007d8 	ldrdeq	r0, [r0], -r8
    12f0:	0007e13b 	andeq	lr, r7, fp, lsr r1
    12f4:	07ec3500 	strbeq	r3, [ip, r0, lsl #10]!
    12f8:	11f60000 	mvnsne	r0, r0
    12fc:	f7350000 			; <UNDEFINED> instruction: 0xf7350000
    1300:	20000007 	andcs	r0, r0, r7
    1304:	00000012 	andeq	r0, r0, r2, lsl r0
    1308:	0fc94d00 	svceq	0x00c94d00
    130c:	8e620000 	cdphi	0, 6, cr0, cr2, cr0, {0}
    1310:	002e0000 	eoreq	r0, lr, r0
    1314:	da010000 	ble	4131c <__bss_end__+0x2efd8>
    1318:	00134701 	andseq	r4, r3, r1, lsl #14
    131c:	8e624c00 	cdphi	12, 6, cr4, cr2, cr0, {0}
    1320:	002e0000 	eoreq	r0, lr, r0
    1324:	d94e0000 	stmdble	lr, {}^	; <UNPREDICTABLE>
    1328:	0300000f 	movweq	r0, #15
    132c:	285f9891 	ldmdacs	pc, {r0, r4, r7, fp, ip, pc}^	; <UNPREDICTABLE>
    1330:	00008e7a 	andeq	r8, r0, sl, ror lr
    1334:	00001858 	andeq	r1, r0, r8, asr r8
    1338:	01520129 	cmpeq	r2, r9, lsr #2
    133c:	51012938 	tstpl	r1, r8, lsr r9
    1340:	5f989103 	svcpl	0x00989103
    1344:	4f000000 	svcmi	0x00000000
    1348:	00000100 	andeq	r0, r0, r0, lsl #2
    134c:	0000138b 	andeq	r1, r0, fp, lsl #7
    1350:	00075142 	andeq	r5, r7, r2, asr #2
    1354:	01e10100 	mvneq	r0, r0, lsl #2
    1358:	00000033 	andeq	r0, r0, r3, lsr r0
    135c:	00001256 	andeq	r1, r0, r6, asr r2
    1360:	008f8e28 	addeq	r8, pc, r8, lsr #28
    1364:	00194d00 	andseq	r4, r9, r0, lsl #26
    1368:	52062900 	andpl	r2, r6, #0, 18
    136c:	93530493 	cmpls	r3, #-1828716544	; 0x93000000
    1370:	7f740e04 	svcvc	0x00740e04
    1374:	25f72cf7 	ldrbcs	r2, [r7, #3319]!	; 0xcf7
    1378:	1e2550f5 	mcrne	0, 1, r5, cr5, cr5, {7}
    137c:	222550f5 	eorcs	r5, r5, #245	; 0xf5
    1380:	05500129 	ldrbeq	r0, [r0, #-297]	; 0x129
    1384:	00a07c03 	adceq	r7, r0, r3, lsl #24
    1388:	43000000 	movwmi	r0, #0
    138c:	00000fc9 	andeq	r0, r0, r9, asr #31
    1390:	00008f9a 	muleq	r0, sl, pc	; <UNPREDICTABLE>
    1394:	00000120 	andeq	r0, r0, r0, lsr #2
    1398:	c701ed01 	strgt	lr, [r1, -r1, lsl #26]
    139c:	39000013 	stmdbcc	r0, {r0, r1, r4}
    13a0:	00000120 	andeq	r0, r0, r0, lsr #2
    13a4:	000fd94e 	andeq	sp, pc, lr, asr #18
    13a8:	b0910400 	addslt	r0, r1, r0, lsl #8
    13ac:	b2287fb4 	eorlt	r7, r8, #180, 30	; 0x2d0
    13b0:	5800008f 	stmdapl	r0, {r0, r1, r2, r3, r7}
    13b4:	29000018 	stmdbcs	r0, {r3, r4}
    13b8:	38015201 	stmdacc	r1, {r0, r9, ip, lr}
    13bc:	04510129 	ldrbeq	r0, [r1], #-297	; 0x129
    13c0:	7fb4b091 	svcvc	0x00b4b091
    13c4:	4d000000 	stcmi	0, cr0, [r0, #-0]
    13c8:	00000fc9 	andeq	r0, r0, r9, asr #31
    13cc:	00008fe0 	andeq	r8, r0, r0, ror #31
    13d0:	0000001e 	andeq	r0, r0, lr, lsl r0
    13d4:	0701fb01 	streq	pc, [r1, -r1, lsl #22]
    13d8:	4c000014 	stcmi	0, cr0, [r0], {20}
    13dc:	00008fe0 	andeq	r8, r0, r0, ror #31
    13e0:	0000001e 	andeq	r0, r0, lr, lsl r0
    13e4:	000fd94e 	andeq	sp, pc, lr, asr #18
    13e8:	b0910400 	addslt	r0, r1, r0, lsl #8
    13ec:	f0287fb4 			; <UNDEFINED> instruction: 0xf0287fb4
    13f0:	5800008f 	stmdapl	r0, {r0, r1, r2, r3, r7}
    13f4:	29000018 	stmdbcs	r0, {r3, r4}
    13f8:	38015201 	stmdacc	r1, {r0, r9, ip, lr}
    13fc:	04510129 	ldrbeq	r0, [r1], #-297	; 0x129
    1400:	7fb4b091 	svcvc	0x00b4b091
    1404:	4f000000 	svcmi	0x00000000
    1408:	00000138 	andeq	r0, r0, r8, lsr r1
    140c:	00001460 	andeq	r1, r0, r0, ror #8
    1410:	0007a342 	andeq	sl, r7, r2, asr #6
    1414:	02040100 	andeq	r0, r4, #0, 2
    1418:	00000033 	andeq	r0, r0, r3, lsr r0
    141c:	00001316 	andeq	r1, r0, r6, lsl r3
    1420:	00021542 	andeq	r1, r2, r2, asr #10
    1424:	02050100 	andeq	r0, r5, #0, 2
    1428:	00000033 	andeq	r0, r0, r3, lsr r0
    142c:	00001363 	andeq	r1, r0, r3, ror #6
    1430:	00921e28 	addseq	r1, r2, r8, lsr #28
    1434:	00194d00 	andseq	r4, r9, r0, lsl #26
    1438:	52062900 	andpl	r2, r6, #0, 18
    143c:	93530493 	cmpls	r3, #-1828716544	; 0x93000000
    1440:	a8911304 	ldmge	r1, {r2, r8, r9, ip}
    1444:	31067fb4 			; <UNDEFINED> instruction: 0x31067fb4
    1448:	f72cf71c 			; <UNDEFINED> instruction: 0xf72cf71c
    144c:	2550f525 	ldrbcs	pc, [r0, #-1317]	; 0x525	; <UNPREDICTABLE>
    1450:	2550f51e 	ldrbcs	pc, [r0, #-1310]	; 0x51e	; <UNPREDICTABLE>
    1454:	50012922 	andpl	r2, r1, r2, lsr #18
    1458:	a0a00305 	adcge	r0, r0, r5, lsl #6
    145c:	00000000 	andeq	r0, r0, r0
    1460:	00067d4d 	andeq	r7, r6, sp, asr #26
    1464:	00925000 	addseq	r5, r2, r0
    1468:	00001200 	andeq	r1, r0, r0, lsl #4
    146c:	02180100 	andseq	r0, r8, #0, 2
    1470:	000014a3 	andeq	r1, r0, r3, lsr #9
    1474:	00068e34 	andeq	r8, r6, r4, lsr lr
    1478:	00138d00 	andseq	r8, r3, r0, lsl #26
    147c:	92622800 	rsbls	r2, r2, #0, 16
    1480:	192c0000 	stmdbne	ip!, {}	; <UNPREDICTABLE>
    1484:	01290000 	teqeq	r9, r0
    1488:	e9030553 	stmdb	r3, {r0, r1, r4, r6, r8, sl}
    148c:	29000093 	stmdbcs	r0, {r0, r1, r4, r7}
    1490:	38015201 	stmdacc	r1, {r0, r9, ip, lr}
    1494:	01510129 	cmpeq	r1, r9, lsr #2
    1498:	50012935 	andpl	r2, r1, r5, lsr r9
    149c:	b4c89104 	strblt	r9, [r8], #260	; 0x104
    14a0:	4d00007f 	stcmi	0, cr0, [r0, #-508]	; 0xfffffe04
    14a4:	0000067d 	andeq	r0, r0, sp, ror r6
    14a8:	00009272 	andeq	r9, r0, r2, ror r2
    14ac:	00000012 	andeq	r0, r0, r2, lsl r0
    14b0:	e6021901 	str	r1, [r2], -r1, lsl #18
    14b4:	34000014 	strcc	r0, [r0], #-20
    14b8:	0000068e 	andeq	r0, r0, lr, lsl #13
    14bc:	000013cd 	andeq	r1, r0, sp, asr #7
    14c0:	00928428 	addseq	r8, r2, r8, lsr #8
    14c4:	00192c00 	andseq	r2, r9, r0, lsl #24
    14c8:	53012900 	movwpl	r2, #6400	; 0x1900
    14cc:	93e90305 	mvnls	r0, #335544320	; 0x14000000
    14d0:	01290000 	teqeq	r9, r0
    14d4:	29380152 	ldmdbcs	r8!, {r1, r4, r6, r8}
    14d8:	35015101 	strcc	r5, [r1, #-257]	; 0x101
    14dc:	04500129 	ldrbeq	r0, [r0], #-297	; 0x129
    14e0:	7fb4f091 	svcvc	0x00b4f091
    14e4:	a62e0000 	strtge	r0, [lr], -r0
    14e8:	3d000087 	stccc	0, cr0, [r0, #-540]	; 0xfffffde4
    14ec:	fd000018 	stc2	0, cr0, [r0, #-96]	; 0xffffffa0
    14f0:	29000014 	stmdbcs	r0, {r2, r4}
    14f4:	03055001 	movweq	r5, #20481	; 0x5001
    14f8:	0000a004 	andeq	sl, r0, r4
    14fc:	87ce2e00 	strbhi	r2, [lr, r0, lsl #28]
    1500:	19640000 	stmdbne	r4!, {}^	; <UNPREDICTABLE>
    1504:	15340000 	ldrne	r0, [r4, #-0]!
    1508:	01290000 	teqeq	r9, r0
    150c:	29310153 	ldmdbcs	r1!, {r0, r1, r4, r6, r8}
    1510:	33015201 	movwcc	r5, #4609	; 0x1201
    1514:	03510129 	cmpeq	r1, #1073741834	; 0x4000000a
    1518:	29243d40 	stmdbcs	r4!, {r6, r8, sl, fp, ip, sp}
    151c:	30015001 	andcc	r5, r1, r1
    1520:	047d0229 	ldrbteq	r0, [sp], #-553	; 0x229
    1524:	244a4004 	strbcs	r4, [sl], #-4
    1528:	7d02291f 	stcvc	9, cr2, [r2, #-124]	; 0xffffff84
    152c:	ac910500 	cfldr32ge	mvfx0, [r1], {0}
    1530:	00067fb4 			; <UNDEFINED> instruction: 0x00067fb4
    1534:	0087f02e 	addeq	pc, r7, lr, lsr #32
    1538:	00196400 	andseq	r6, r9, r0, lsl #8
    153c:	00156800 	andseq	r6, r5, r0, lsl #16
    1540:	53012900 	movwpl	r2, #6400	; 0x1900
    1544:	01293101 	teqeq	r9, r1, lsl #2
    1548:	29330152 	ldmdbcs	r3!, {r1, r4, r6, r8}
    154c:	40035101 	andmi	r5, r3, r1, lsl #2
    1550:	01292446 	teqeq	r9, r6, asr #8
    1554:	29300150 	ldmdbcs	r0!, {r4, r6, r8}
    1558:	04047d02 	streq	r7, [r4], #-3330	; 0xd02
    155c:	1f244640 	svcne	0x00244640
    1560:	007d0229 	rsbseq	r0, sp, r9, lsr #4
    1564:	00007602 	andeq	r7, r0, r2, lsl #12
    1568:	00881e2e 	addeq	r1, r8, lr, lsr #28
    156c:	00196400 	andseq	r6, r9, r0, lsl #8
    1570:	00158c00 	andseq	r8, r5, r0, lsl #24
    1574:	53012900 	movwpl	r2, #6400	; 0x1900
    1578:	01293101 	teqeq	r9, r1, lsl #2
    157c:	29330152 	ldmdbcs	r3!, {r1, r4, r6, r8}
    1580:	0a035101 	beq	d598c <__bss_end__+0xc3648>
    1584:	01290800 	teqeq	r9, r0, lsl #16
    1588:	00300150 	eorseq	r0, r0, r0, asr r1
    158c:	0088482f 	addeq	r4, r8, pc, lsr #16
    1590:	0008dc00 	andeq	sp, r8, r0, lsl #24
    1594:	885c2e00 	ldmdahi	ip, {r9, sl, fp, sp}^
    1598:	095f0000 	ldmdbeq	pc, {}^	; <UNPREDICTABLE>
    159c:	15ae0000 	strne	r0, [lr, #0]!
    15a0:	01290000 	teqeq	r9, r0
    15a4:	29400151 	stmdbcs	r0, {r0, r4, r6, r8}^
    15a8:	7b025001 	blvc	955b4 <__bss_end__+0x83270>
    15ac:	682e0000 	stmdavs	lr!, {}	; <UNPREDICTABLE>
    15b0:	28000088 	stmdacs	r0, {r3, r7}
    15b4:	d4000007 	strle	r0, [r0], #-7
    15b8:	29000015 	stmdbcs	r0, {r0, r2, r4}
    15bc:	91045301 	tstls	r4, r1, lsl #6
    15c0:	297fb4b8 	ldmdbcs	pc!, {r3, r4, r5, r7, sl, ip, sp, pc}^	; <UNPREDICTABLE>
    15c4:	37015201 	strcc	r5, [r1, -r1, lsl #4]
    15c8:	01510129 	cmpeq	r1, r9, lsr #2
    15cc:	50012940 	andpl	r2, r1, r0, asr #18
    15d0:	00007b02 	andeq	r7, r0, r2, lsl #22
    15d4:	008bfc2e 	addeq	pc, fp, lr, lsr #24
    15d8:	00199200 	andseq	r9, r9, r0, lsl #4
    15dc:	0015ee00 	andseq	lr, r5, r0, lsl #28
    15e0:	52012900 	andpl	r2, r1, #0, 18
    15e4:	29800802 	stmibcs	r0, {r1, fp}
    15e8:	75025101 	strvc	r5, [r2, #-257]	; 0x101
    15ec:	be2e0000 	cdplt	0, 2, cr0, cr14, cr0, {0}
    15f0:	af00008e 	svcge	0x0000008e
    15f4:	05000019 	streq	r0, [r0, #-25]
    15f8:	29000016 	stmdbcs	r0, {r1, r2, r4}
    15fc:	03055001 	movweq	r5, #20481	; 0x5001
    1600:	0000a070 	andeq	sl, r0, r0, ror r0
    1604:	8fe02e00 	svchi	0x00e02e00
    1608:	0e900000 	cdpeq	0, 9, cr0, cr0, cr0, {0}
    160c:	16280000 	strtne	r0, [r8], -r0
    1610:	01290000 	teqeq	r9, r0
    1614:	b8910453 	ldmlt	r1, {r0, r1, r4, r6, sl}
    1618:	01297fb4 			; <UNDEFINED> instruction: 0x01297fb4
    161c:	80080252 	andhi	r0, r8, r2, asr r2
    1620:	03510129 	cmpeq	r1, #1073741834	; 0x4000000a
    1624:	0004000a 	andeq	r0, r4, sl
    1628:	0090322e 	addseq	r3, r0, lr, lsr #4
    162c:	0019af00 	andseq	sl, r9, r0, lsl #30
    1630:	00163f00 	andseq	r3, r6, r0, lsl #30
    1634:	50012900 	andpl	r2, r1, r0, lsl #18
    1638:	a0940305 	addsge	r0, r4, r5, lsl #6
    163c:	2e000000 	cdpcs	0, 0, cr0, cr0, cr0, {0}
    1640:	00009234 	andeq	r9, r0, r4, lsr r2
    1644:	0000194d 	andeq	r1, r0, sp, asr #18
    1648:	0000165f 	andeq	r1, r0, pc, asr r6
    164c:	05510129 	ldrbeq	r0, [r1, #-297]	; 0x129
    1650:	7fb4a091 	svcvc	0x00b4a091
    1654:	50012906 	andpl	r2, r1, r6, lsl #18
    1658:	a0c40305 	sbcge	r0, r4, r5, lsl #6
    165c:	2f000000 	svccs	0x00000000
    1660:	00009250 	andeq	r9, r0, r0, asr r2
    1664:	000019af 	andeq	r1, r0, pc, lsr #19
    1668:	0092722e 	addseq	r7, r2, lr, lsr #4
    166c:	00194d00 	andseq	r4, r9, r0, lsl #26
    1670:	00167f00 	andseq	r7, r6, r0, lsl #30
    1674:	50012900 	andpl	r2, r1, r0, lsl #18
    1678:	a1000305 	tstge	r0, r5, lsl #6
    167c:	2e000000 	cdpcs	0, 0, cr0, cr0, cr0, {0}
    1680:	00009294 	muleq	r0, r4, r2
    1684:	0000194d 	andeq	r1, r0, sp, asr #18
    1688:	00001696 	muleq	r0, r6, r6
    168c:	05500129 	ldrbeq	r0, [r0, #-297]	; 0x129
    1690:	00a12003 	adceq	r2, r1, r3
    1694:	a02e0000 	eorge	r0, lr, r0
    1698:	c8000092 	stmdagt	r0, {r1, r4, r7}
    169c:	ab000019 	blge	1708 <shift+0x1708>
    16a0:	29000016 	stmdbcs	r0, {r1, r2, r4}
    16a4:	40035101 	andmi	r5, r3, r1, lsl #2
    16a8:	2e00243d 	cfmvdhrcs	mvd0, r2
    16ac:	000092aa 	andeq	r9, r0, sl, lsr #5
    16b0:	00001827 	andeq	r1, r0, r7, lsr #16
    16b4:	000016c2 	andeq	r1, r0, r2, asr #13
    16b8:	05500129 	ldrbeq	r0, [r0, #-297]	; 0x129
    16bc:	7fb4ac91 	svcvc	0x00b4ac91
    16c0:	c82e0006 	stmdagt	lr!, {r1, r2}
    16c4:	af000092 	svcge	0x00000092
    16c8:	d9000019 	stmdble	r0, {r0, r3, r4}
    16cc:	29000016 	stmdbcs	r0, {r1, r2, r4}
    16d0:	03055001 	movweq	r5, #20481	; 0x5001
    16d4:	0000a010 	andeq	sl, r0, r0, lsl r0
    16d8:	92d82e00 	sbcsls	r2, r8, #0, 28
    16dc:	19af0000 	stmibne	pc!, {}	; <UNPREDICTABLE>
    16e0:	16f00000 	ldrbtne	r0, [r0], r0
    16e4:	01290000 	teqeq	r9, r0
    16e8:	44030550 	strmi	r0, [r3], #-1360	; 0x550
    16ec:	000000a1 	andeq	r0, r0, r1, lsr #1
    16f0:	0092de2e 	addseq	sp, r2, lr, lsr #28
    16f4:	00182700 	andseq	r2, r8, r0, lsl #14
    16f8:	00170700 	andseq	r0, r7, r0, lsl #14
    16fc:	50012900 	andpl	r2, r1, r0, lsl #18
    1700:	b4ac9105 	strtlt	r9, [ip], #261	; 0x105
    1704:	2e00067f 	mcrcs	6, 0, r0, cr0, cr15, {3}
    1708:	000092ee 	andeq	r9, r0, lr, ror #5
    170c:	000019af 	andeq	r1, r0, pc, lsr #19
    1710:	0000171e 	andeq	r1, r0, lr, lsl r7
    1714:	05500129 	ldrbeq	r0, [r0, #-297]	; 0x129
    1718:	00a04c03 	adceq	r4, r0, r3, lsl #24
    171c:	fe2e0000 	cdp2	0, 2, cr0, cr14, cr0, {0}
    1720:	af000092 	svcge	0x00000092
    1724:	35000019 	strcc	r0, [r0, #-25]
    1728:	29000017 	stmdbcs	r0, {r0, r1, r2, r4}
    172c:	03055001 	movweq	r5, #20481	; 0x5001
    1730:	0000a034 	andeq	sl, r0, r4, lsr r0
    1734:	93042800 	movwls	r2, #18432	; 0x4800
    1738:	18270000 	stmdane	r7!, {}	; <UNPREDICTABLE>
    173c:	01290000 	teqeq	r9, r0
    1740:	ac910550 	cfldr32ge	mvfx0, [r1], {80}	; 0x50
    1744:	00067fb4 			; <UNDEFINED> instruction: 0x00067fb4
    1748:	00250b00 	eoreq	r0, r5, r0, lsl #22
    174c:	17590000 	ldrbne	r0, [r9, -r0]
    1750:	9e0c0000 	cdpls	0, 0, cr0, cr12, cr0, {0}
    1754:	0f000000 	svceq	0x00000000
    1758:	00250b00 	eoreq	r0, r5, r0, lsl #22
    175c:	17690000 	strbne	r0, [r9, -r0]!
    1760:	9e0c0000 	cdpls	0, 0, cr0, cr12, cr0, {0}
    1764:	7f000000 	svcvc	0x00000000
    1768:	059a0b00 	ldreq	r0, [sl, #2816]	; 0xb00
    176c:	17790000 	ldrbne	r0, [r9, -r0]!
    1770:	9e0c0000 	cdpls	0, 0, cr0, cr12, cr0, {0}
    1774:	7f000000 	svcvc	0x00000000
    1778:	059a0b00 	ldreq	r0, [sl, #2816]	; 0xb00
    177c:	17890000 	strne	r0, [r9, r0]
    1780:	9e0c0000 	cdpls	0, 0, cr0, cr12, cr0, {0}
    1784:	0f000000 	svceq	0x00000000
    1788:	05bb0b00 	ldreq	r0, [fp, #2816]!	; 0xb00
    178c:	179a0000 	ldrne	r0, [sl, r0]
    1790:	9e500000 	cdpls	0, 5, cr0, cr0, cr0, {0}
    1794:	ff000000 			; <UNDEFINED> instruction: 0xff000000
    1798:	6f0b0003 	svcvs	0x000b0003
    179c:	aa000000 	bge	17a4 <shift+0x17a4>
    17a0:	0c000017 	stceq	0, cr0, [r0], {23}
    17a4:	0000009e 	muleq	r0, lr, r0
    17a8:	23270004 	teqcs	r7, #4
    17ac:	01000008 	tsteq	r0, r8
    17b0:	00002c18 	andeq	r2, r0, r8, lsl ip
    17b4:	e0030500 	and	r0, r3, r0, lsl #10
    17b8:	51000122 	tstpl	r0, r2, lsr #2
    17bc:	0000030c 	andeq	r0, r0, ip, lsl #6
    17c0:	0288a804 	addeq	sl, r8, #4, 16	; 0x40000
    17c4:	77510000 	ldrbvc	r0, [r1, -r0]
    17c8:	04000004 	streq	r0, [r0], #-4
    17cc:	000288a9 	andeq	r8, r2, r9, lsr #17
    17d0:	01705200 	cmneq	r0, r0, lsl #4
    17d4:	ca010000 	bgt	417dc <__bss_end__+0x2f498>
    17d8:	000017e2 	andeq	r1, r0, r2, ror #15
    17dc:	233c0305 	teqcs	ip, #335544320	; 0x14000000
    17e0:	04060001 	streq	r0, [r6], #-1
    17e4:	000017e8 	andeq	r1, r0, r8, ror #15
    17e8:	00005318 	andeq	r5, r0, r8, lsl r3
    17ec:	047e5200 	ldrbteq	r5, [lr], #-512	; 0x200
    17f0:	cb010000 	blgt	417f8 <__bss_end__+0x2f4b4>
    17f4:	0000061d 	andeq	r0, r0, sp, lsl r6
    17f8:	23380305 	teqcs	r8, #335544320	; 0x14000000
    17fc:	9e530001 	cdpls	0, 5, cr0, cr3, cr1, {0}
    1800:	01000007 	tsteq	r0, r7
    1804:	05a50156 	streq	r0, [r5, #342]!	; 0x156
    1808:	03050000 	movweq	r0, #20480	; 0x5000
    180c:	00012340 	andeq	r2, r1, r0, asr #6
    1810:	00057c54 	andeq	r7, r5, r4, asr ip
    1814:	04220900 	strteq	r0, [r2], #-2304	; 0x900
    1818:	0000008c 	andeq	r0, r0, ip, lsl #1
    181c:	00001827 	andeq	r1, r0, r7, lsr #16
    1820:	00008c10 	andeq	r8, r0, r0, lsl ip
    1824:	54005500 	strpl	r5, [r0], #-1280	; 0x500
    1828:	0000068f 	andeq	r0, r0, pc, lsl #13
    182c:	2c016109 	stfcss	f6, [r1], {9}
    1830:	3d000000 	stccc	0, cr0, [r0, #-0]
    1834:	10000018 	andne	r0, r0, r8, lsl r0
    1838:	0000002c 	andeq	r0, r0, ip, lsr #32
    183c:	052a5600 	streq	r5, [sl, #-1536]!	; 0x600
    1840:	a90a0000 	stmdbge	sl, {}	; <UNPREDICTABLE>
    1844:	0000002c 	andeq	r0, r0, ip, lsr #32
    1848:	00001858 	andeq	r1, r0, r8, asr r8
    184c:	0002b410 	andeq	fp, r2, r0, lsl r4
    1850:	002c1000 	eoreq	r1, ip, r0
    1854:	00550000 	subseq	r0, r5, r0
    1858:	0007b254 	andeq	fp, r7, r4, asr r2
    185c:	01680900 	cmneq	r8, r0, lsl #18
    1860:	000002bf 			; <UNDEFINED> instruction: 0x000002bf
    1864:	00001878 	andeq	r1, r0, r8, ror r8
    1868:	00002c10 	andeq	r2, r0, r0, lsl ip
    186c:	00a51000 	adceq	r1, r5, r0
    1870:	3a100000 	bcc	401878 <__bss_end__+0x3ef534>
    1874:	00000000 	andeq	r0, r0, r0
    1878:	0006e057 	andeq	lr, r6, r7, asr r0
    187c:	01780600 	cmneq	r8, r0, lsl #12
    1880:	0000188a 	andeq	r1, r0, sl, lsl #17
    1884:	00003310 	andeq	r3, r0, r0, lsl r3
    1888:	73580000 	cmpvc	r8, #0
    188c:	0c006e69 	stceq	14, cr6, [r0], {105}	; 0x69
    1890:	00002541 	andeq	r2, r0, r1, asr #10
    1894:	00189f00 	andseq	r9, r8, r0, lsl #30
    1898:	00251000 	eoreq	r1, r5, r0
    189c:	59000000 	stmdbpl	r0, {}	; <UNPREDICTABLE>
    18a0:	00000560 	andeq	r0, r0, r0, ror #10
    18a4:	18bf430b 	ldmne	pc!, {r0, r1, r3, r8, r9, lr}	; <UNPREDICTABLE>
    18a8:	b4100000 	ldrlt	r0, [r0], #-0
    18ac:	10000002 	andne	r0, r0, r2
    18b0:	000002b4 			; <UNDEFINED> instruction: 0x000002b4
    18b4:	00003310 	andeq	r3, r0, r0, lsl r3
    18b8:	02b41000 	adcseq	r1, r4, #0
    18bc:	5a000000 	bpl	18c4 <shift+0x18c4>
    18c0:	000006e1 	andeq	r0, r0, r1, ror #13
    18c4:	2c017606 	stccs	6, cr7, [r1], {6}
    18c8:	56000000 	strpl	r0, [r0], -r0
    18cc:	0000043c 	andeq	r0, r0, ip, lsr r4
    18d0:	0025b80c 	eoreq	fp, r5, ip, lsl #16
    18d4:	18e00000 	stmiane	r0!, {}^	; <UNPREDICTABLE>
    18d8:	25100000 	ldrcs	r0, [r0, #-0]
    18dc:	00000000 	andeq	r0, r0, r0
    18e0:	00052954 	andeq	r2, r5, r4, asr r9
    18e4:	01100400 	tsteq	r0, r0, lsl #8
    18e8:	00000d58 	andeq	r0, r0, r8, asr sp
    18ec:	000018fb 	strdeq	r1, [r0], -fp
    18f0:	0002b410 	andeq	fp, r2, r0, lsl r4
    18f4:	02b41000 	adcseq	r1, r4, #0
    18f8:	54000000 	strpl	r0, [r0], #-0
    18fc:	00000326 	andeq	r0, r0, r6, lsr #6
    1900:	2c016404 	cfstrscs	mvf6, [r1], {4}
    1904:	17000000 	strne	r0, [r0, -r0]
    1908:	10000019 	andne	r0, r0, r9, lsl r0
    190c:	00000d58 	andeq	r0, r0, r8, asr sp
    1910:	0002b410 	andeq	fp, r2, r0, lsl r4
    1914:	56005500 	strpl	r5, [r0], -r0, lsl #10
    1918:	0000068e 	andeq	r0, r0, lr, lsl #13
    191c:	002ced04 	eoreq	lr, ip, r4, lsl #26
    1920:	192c0000 	stmdbne	ip!, {}	; <UNPREDICTABLE>
    1924:	58100000 	ldmdapl	r0, {}	; <UNPREDICTABLE>
    1928:	0000000d 	andeq	r0, r0, sp
    192c:	0002ad57 	andeq	sl, r2, r7, asr sp
    1930:	02fd0600 	rscseq	r0, sp, #0, 12
    1934:	0000194d 	andeq	r1, r0, sp, asr #18
    1938:	0000a510 	andeq	sl, r0, r0, lsl r5
    193c:	003a1000 	eorseq	r1, sl, r0
    1940:	3a100000 	bcc	401948 <__bss_end__+0x3ef604>
    1944:	10000000 	andne	r0, r0, r0
    1948:	000002ca 	andeq	r0, r0, sl, asr #5
    194c:	03275400 	teqeq	r7, #0, 8
    1950:	6a040000 	bvs	101958 <__bss_end__+0xef614>
    1954:	00002c01 	andeq	r2, r0, r1, lsl #24
    1958:	00196400 	andseq	r6, r9, r0, lsl #8
    195c:	02b41000 	adcseq	r1, r4, #0
    1960:	00550000 	subseq	r0, r5, r0
    1964:	00026356 	andeq	r6, r2, r6, asr r3
    1968:	a5390d00 	ldrge	r0, [r9, #-3328]!	; 0xd00
    196c:	92000000 	andls	r0, r0, #0
    1970:	10000019 	andne	r0, r0, r9, lsl r0
    1974:	000000a5 	andeq	r0, r0, r5, lsr #1
    1978:	00003a10 	andeq	r3, r0, r0, lsl sl
    197c:	002c1000 	eoreq	r1, ip, r0
    1980:	2c100000 	ldccs	0, cr0, [r0], {-0}
    1984:	10000000 	andne	r0, r0, r0
    1988:	0000002c 	andeq	r0, r0, ip, lsr #32
    198c:	00008110 	andeq	r8, r0, r0, lsl r1
    1990:	cc5b0000 	mragt	r0, fp, acc0
    1994:	a5000006 	strge	r0, [r0, #-6]
    1998:	af000000 	svcge	0x00000000
    199c:	10000019 	andne	r0, r0, r9, lsl r0
    19a0:	000000a5 	andeq	r0, r0, r5, lsr #1
    19a4:	0002f010 	andeq	pc, r2, r0, lsl r0	; <UNPREDICTABLE>
    19a8:	009e1000 	addseq	r1, lr, r0
    19ac:	5c000000 	stcpl	0, cr0, [r0], {-0}
    19b0:	00000248 	andeq	r0, r0, r8, asr #4
    19b4:	0252000e 	subseq	r0, r2, #14
    19b8:	002c0000 	eoreq	r0, ip, r0
    19bc:	19c80000 	stmibne	r8, {}^	; <UNPREDICTABLE>
    19c0:	b4100000 	ldrlt	r0, [r0], #-0
    19c4:	00000002 	andeq	r0, r0, r2
    19c8:	00036a5d 	andeq	r6, r3, sp, asr sl
    19cc:	2c4c0d00 	mcrrcs	13, 0, r0, ip, cr0
    19d0:	10000000 	andne	r0, r0, r0
    19d4:	000000a5 	andeq	r0, r0, r5, lsr #1
    19d8:	00003a10 	andeq	r3, r0, r0, lsl sl
    19dc:	Address 0x000019dc is out of bounds.


Disassembly of section .debug_abbrev:

00000000 <.debug_abbrev>:
   0:	25011101 	strcs	r1, [r1, #-257]	; 0x101
   4:	030b130e 	movweq	r1, #45838	; 0xb30e
   8:	550e1b0e 	strpl	r1, [lr, #-2830]	; 0xb0e
   c:	10011117 	andne	r1, r1, r7, lsl r1
  10:	02000017 	andeq	r0, r0, #23
  14:	0b0b0024 	bleq	2c00ac <__bss_end__+0x2add68>
  18:	0e030b3e 	vmoveq.16	d3[0], r0
  1c:	24030000 	strcs	r0, [r3], #-0
  20:	3e0b0b00 	vmlacc.f64	d0, d11, d0
  24:	0008030b 	andeq	r0, r8, fp, lsl #6
  28:	00160400 	andseq	r0, r6, r0, lsl #8
  2c:	0b3a0e03 	bleq	e83840 <__bss_end__+0xe714fc>
  30:	13490b3b 	movtne	r0, #39739	; 0x9b3b
  34:	0f050000 	svceq	0x00050000
  38:	000b0b00 	andeq	r0, fp, r0, lsl #22
  3c:	000f0600 	andeq	r0, pc, r0, lsl #12
  40:	13490b0b 	movtne	r0, #39691	; 0x9b0b
  44:	13070000 	movwne	r0, #28672	; 0x7000
  48:	0b0e0301 	bleq	380c54 <__bss_end__+0x36e910>
  4c:	3b0b3a0b 	blcc	2ce880 <__bss_end__+0x2bc53c>
  50:	0013010b 	andseq	r0, r3, fp, lsl #2
  54:	000d0800 	andeq	r0, sp, r0, lsl #16
  58:	0b3a0e03 	bleq	e8386c <__bss_end__+0xe71528>
  5c:	13490b3b 	movtne	r0, #39739	; 0x9b3b
  60:	00000b38 	andeq	r0, r0, r8, lsr fp
  64:	03000d09 	movweq	r0, #3337	; 0xd09
  68:	3b0b3a0e 	blcc	2ce8a8 <__bss_end__+0x2bc564>
  6c:	38134905 	ldmdacc	r3, {r0, r2, r8, fp, lr}
  70:	0a00000b 	beq	a4 <shift+0xa4>
  74:	0e030016 	mcreq	0, 0, r0, cr3, cr6, {0}
  78:	0b3b0b3a 	bleq	ec2d68 <__bss_end__+0xeb0a24>
  7c:	010b0000 	mrseq	r0, (UNDEF: 11)
  80:	01134901 	tsteq	r3, r1, lsl #18
  84:	0c000013 	stceq	0, cr0, [r0], {19}
  88:	13490021 	movtne	r0, #36897	; 0x9021
  8c:	00000b2f 	andeq	r0, r0, pc, lsr #22
  90:	4900260d 	stmdbmi	r0, {r0, r2, r3, r9, sl, sp}
  94:	0e000013 	mcreq	0, 0, r0, cr0, cr3, {0}
  98:	0e030016 	mcreq	0, 0, r0, cr3, cr6, {0}
  9c:	053b0b3a 	ldreq	r0, [fp, #-2874]!	; 0xb3a
  a0:	00001349 	andeq	r1, r0, r9, asr #6
  a4:	2701150f 	strcs	r1, [r1, -pc, lsl #10]
  a8:	01134919 	tsteq	r3, r9, lsl r9
  ac:	10000013 	andne	r0, r0, r3, lsl r0
  b0:	13490005 	movtne	r0, #36869	; 0x9005
  b4:	26110000 	ldrcs	r0, [r1], -r0
  b8:	12000000 	andne	r0, r0, #0
  bc:	0e030104 	adfeqs	f0, f3, f4
  c0:	0b3a0b0b 	bleq	e82cf4 <__bss_end__+0xe709b0>
  c4:	13010b3b 	movwne	r0, #6971	; 0x1b3b
  c8:	28130000 	ldmdacs	r3, {}	; <UNPREDICTABLE>
  cc:	1c0e0300 	stcne	3, cr0, [lr], {-0}
  d0:	1400000d 	strne	r0, [r0], #-13
  d4:	0b0b0117 	bleq	2c0538 <__bss_end__+0x2ae1f4>
  d8:	0b3b0b3a 	bleq	ec2dc8 <__bss_end__+0xeb0a84>
  dc:	00001301 	andeq	r1, r0, r1, lsl #6
  e0:	03000d15 	movweq	r0, #3349	; 0xd15
  e4:	3b0b3a0e 	blcc	2ce924 <__bss_end__+0x2bc5e0>
  e8:	0013490b 	andseq	r4, r3, fp, lsl #18
  ec:	000d1600 	andeq	r1, sp, r0, lsl #12
  f0:	0b381349 	bleq	e04e1c <__bss_end__+0xdf2ad8>
  f4:	0d170000 	ldceq	0, cr0, [r7, #-0]
  f8:	3a0e0300 	bcc	380d00 <__bss_end__+0x36e9bc>
  fc:	490b3b0b 	stmdbmi	fp, {r0, r1, r3, r8, r9, fp, ip, sp}
 100:	0d0b0b13 	vstreq	d0, [fp, #-76]	; 0xffffffb4
 104:	380b0c0b 	stmdacc	fp, {r0, r1, r3, sl, fp}
 108:	1800000b 	stmdane	r0, {r0, r1, r3}
 10c:	13490035 	movtne	r0, #36917	; 0x9035
 110:	2e190000 	cdpcs	0, 1, cr0, cr9, cr0, {0}
 114:	03193f01 	tsteq	r9, #1, 30
 118:	3b0b3a0e 	blcc	2ce958 <__bss_end__+0x2bc614>
 11c:	4919270b 	ldmdbmi	r9, {r0, r1, r3, r8, r9, sl, sp}
 120:	010b2013 	tsteq	fp, r3, lsl r0
 124:	1a000013 	bne	178 <shift+0x178>
 128:	08030005 	stmdaeq	r3, {r0, r2}
 12c:	0b3b0b3a 	bleq	ec2e1c <__bss_end__+0xeb0ad8>
 130:	00001349 	andeq	r1, r0, r9, asr #6
 134:	0300341b 	movweq	r3, #1051	; 0x41b
 138:	3b0b3a08 	blcc	2ce960 <__bss_end__+0x2bc61c>
 13c:	0013490b 	andseq	r4, r3, fp, lsl #18
 140:	012e1c00 	teqeq	lr, r0, lsl #24
 144:	0e03193f 	mcreq	9, 0, r1, cr3, cr15, {1}
 148:	0b3b0b3a 	bleq	ec2e38 <__bss_end__+0xeb0af4>
 14c:	0b201927 	bleq	8065f0 <__bss_end__+0x7f42ac>
 150:	00001301 	andeq	r1, r0, r1, lsl #6
 154:	0300051d 	movweq	r0, #1309	; 0x51d
 158:	3b0b3a0e 	blcc	2ce998 <__bss_end__+0x2bc654>
 15c:	0013490b 	andseq	r4, r3, fp, lsl #18
 160:	012e1e00 	teqeq	lr, r0, lsl #28
 164:	0e03193f 	mcreq	9, 0, r1, cr3, cr15, {1}
 168:	053b0b3a 	ldreq	r0, [fp, #-2874]!	; 0xb3a
 16c:	13491927 	movtne	r1, #39207	; 0x9927
 170:	13010b20 	movwne	r0, #6944	; 0x1b20
 174:	051f0000 	ldreq	r0, [pc, #-0]	; 17c <shift+0x17c>
 178:	3a0e0300 	bcc	380d80 <__bss_end__+0x36ea3c>
 17c:	49053b0b 	stmdbmi	r5, {r0, r1, r3, r8, r9, fp, ip, sp}
 180:	20000013 	andcs	r0, r0, r3, lsl r0
 184:	0e030034 	mcreq	0, 0, r0, cr3, cr4, {1}
 188:	0b3b0b3a 	bleq	ec2e78 <__bss_end__+0xeb0b34>
 18c:	00001349 	andeq	r1, r0, r9, asr #6
 190:	3f012e21 	svccc	0x00012e21
 194:	3a0e0319 	bcc	380e00 <__bss_end__+0x36eabc>
 198:	27053b0b 	strcs	r3, [r5, -fp, lsl #22]
 19c:	11134919 	tstne	r3, r9, lsl r9
 1a0:	40061201 	andmi	r1, r6, r1, lsl #4
 1a4:	19429718 	stmdbne	r2, {r3, r4, r8, r9, sl, ip, pc}^
 1a8:	00001301 	andeq	r1, r0, r1, lsl #6
 1ac:	03000522 	movweq	r0, #1314	; 0x522
 1b0:	3b0b3a08 	blcc	2ce9d8 <__bss_end__+0x2bc694>
 1b4:	02134905 	andseq	r4, r3, #81920	; 0x14000
 1b8:	23000017 	movwcs	r0, #23
 1bc:	08030005 	stmdaeq	r3, {r0, r2}
 1c0:	053b0b3a 	ldreq	r0, [fp, #-2874]!	; 0xb3a
 1c4:	18021349 	stmdane	r2, {r0, r3, r6, r8, r9, ip}
 1c8:	34240000 	strtcc	r0, [r4], #-0
 1cc:	3a080300 	bcc	200dd4 <__bss_end__+0x1eea90>
 1d0:	49053b0b 	stmdbmi	r5, {r0, r1, r3, r8, r9, fp, ip, sp}
 1d4:	00170213 	andseq	r0, r7, r3, lsl r2
 1d8:	00342500 	eorseq	r2, r4, r0, lsl #10
 1dc:	0b3a0803 	bleq	e821f0 <__bss_end__+0xe6feac>
 1e0:	1349053b 	movtne	r0, #38203	; 0x953b
 1e4:	00001802 	andeq	r1, r0, r2, lsl #16
 1e8:	03012e26 	movweq	r2, #7718	; 0x1e26
 1ec:	3b0b3a0e 	blcc	2cea2c <__bss_end__+0x2bc6e8>
 1f0:	1119270b 	tstne	r9, fp, lsl #14
 1f4:	40061201 	andmi	r1, r6, r1, lsl #4
 1f8:	19429718 	stmdbne	r2, {r3, r4, r8, r9, sl, ip, pc}^
 1fc:	00001301 	andeq	r1, r0, r1, lsl #6
 200:	03003427 	movweq	r3, #1063	; 0x427
 204:	3b0b3a0e 	blcc	2cea44 <__bss_end__+0x2bc700>
 208:	0213490b 	andseq	r4, r3, #180224	; 0x2c000
 20c:	28000018 	stmdacs	r0, {r3, r4}
 210:	01018289 	smlabbeq	r1, r9, r2, r8
 214:	13310111 	teqne	r1, #1073741828	; 0x40000004
 218:	8a290000 	bhi	a40220 <__bss_end__+0xa2dedc>
 21c:	02000182 	andeq	r0, r0, #-2147483616	; 0x80000020
 220:	18429118 	stmdane	r2, {r3, r4, r8, ip, pc}^
 224:	892a0000 	stmdbhi	sl!, {}	; <UNPREDICTABLE>
 228:	11000182 	smlabbne	r0, r2, r1, r0
 22c:	19429501 	stmdbne	r2, {r0, r8, sl, ip, pc}^
 230:	00001331 	andeq	r1, r0, r1, lsr r3
 234:	3f012e2b 	svccc	0x00012e2b
 238:	3a0e0319 	bcc	380ea4 <__bss_end__+0x36eb60>
 23c:	110b3b0b 	tstne	fp, fp, lsl #22
 240:	40061201 	andmi	r1, r6, r1, lsl #4
 244:	19429718 	stmdbne	r2, {r3, r4, r8, r9, sl, ip, pc}^
 248:	00001301 	andeq	r1, r0, r1, lsl #6
 24c:	0300342c 	movweq	r3, #1068	; 0x42c
 250:	3b0b3a08 	blcc	2cea78 <__bss_end__+0x2bc734>
 254:	0213490b 	andseq	r4, r3, #180224	; 0x2c000
 258:	2d000018 	stccs	0, cr0, [r0, #-96]	; 0xffffffa0
 25c:	08030034 	stmdaeq	r3, {r2, r4, r5}
 260:	0b3b0b3a 	bleq	ec2f50 <__bss_end__+0xeb0c0c>
 264:	17021349 	strne	r1, [r2, -r9, asr #6]
 268:	892e0000 	stmdbhi	lr!, {}	; <UNPREDICTABLE>
 26c:	11010182 	smlabbne	r1, r2, r1, r0
 270:	01133101 	tsteq	r3, r1, lsl #2
 274:	2f000013 	svccs	0x00000013
 278:	00018289 	andeq	r8, r1, r9, lsl #5
 27c:	13310111 	teqne	r1, #1073741828	; 0x40000004
 280:	2e300000 	cdpcs	0, 3, cr0, cr0, cr0, {0}
 284:	03193f01 	tsteq	r9, #1, 30
 288:	3b0b3a0e 	blcc	2ceac8 <__bss_end__+0x2bc784>
 28c:	1119270b 	tstne	r9, fp, lsl #14
 290:	40061201 	andmi	r1, r6, r1, lsl #4
 294:	19429718 	stmdbne	r2, {r3, r4, r8, r9, sl, ip, pc}^
 298:	00001301 	andeq	r1, r0, r1, lsl #6
 29c:	03000531 	movweq	r0, #1329	; 0x531
 2a0:	3b0b3a08 	blcc	2ceac8 <__bss_end__+0x2bc784>
 2a4:	0213490b 	andseq	r4, r3, #180224	; 0x2c000
 2a8:	32000017 	andcc	r0, r0, #23
 2ac:	0e030034 	mcreq	0, 0, r0, cr3, cr4, {1}
 2b0:	19341349 	ldmdbne	r4!, {r0, r3, r6, r8, r9, ip}
 2b4:	00001802 	andeq	r1, r0, r2, lsl #16
 2b8:	31012e33 	tstcc	r1, r3, lsr lr
 2bc:	12011113 	andne	r1, r1, #-1073741820	; 0xc0000004
 2c0:	97184006 	ldrls	r4, [r8, -r6]
 2c4:	13011942 	movwne	r1, #6466	; 0x1942
 2c8:	05340000 	ldreq	r0, [r4, #-0]!
 2cc:	02133100 	andseq	r3, r3, #0, 2
 2d0:	35000017 	strcc	r0, [r0, #-23]
 2d4:	13310034 	teqne	r1, #52	; 0x34
 2d8:	00001702 	andeq	r1, r0, r2, lsl #14
 2dc:	31012e36 	tstcc	r1, r6, lsr lr
 2e0:	12011113 	andne	r1, r1, #-1073741820	; 0xc0000004
 2e4:	96184006 	ldrls	r4, [r8], -r6
 2e8:	13011942 	movwne	r1, #6466	; 0x1942
 2ec:	1d370000 	ldcne	0, cr0, [r7, #-0]
 2f0:	52133101 	andspl	r3, r3, #1073741824	; 0x40000000
 2f4:	58175501 	ldmdapl	r7, {r0, r8, sl, ip, lr}
 2f8:	000b590b 	andeq	r5, fp, fp, lsl #18
 2fc:	00053800 	andeq	r3, r5, r0, lsl #16
 300:	00001331 	andeq	r1, r0, r1, lsr r3
 304:	55010b39 	strpl	r0, [r1, #-2873]	; 0xb39
 308:	3a000017 	bcc	36c <shift+0x36c>
 30c:	13310005 	teqne	r1, #5
 310:	00001802 	andeq	r1, r0, r2, lsl #16
 314:	3100343b 	tstcc	r0, fp, lsr r4
 318:	3c000013 	stccc	0, cr0, [r0], {19}
 31c:	1331011d 	teqne	r1, #1073741831	; 0x40000007
 320:	17550152 			; <UNDEFINED> instruction: 0x17550152
 324:	0b590b58 	bleq	164308c <__bss_end__+0x1630d48>
 328:	00001301 	andeq	r1, r0, r1, lsl #6
 32c:	0300053d 	movweq	r0, #1341	; 0x53d
 330:	3b0b3a0e 	blcc	2ceb70 <__bss_end__+0x2bc82c>
 334:	0213490b 	andseq	r4, r3, #180224	; 0x2c000
 338:	3e000017 	mcrcc	0, 0, r0, cr0, cr7, {0}
 33c:	0e030005 	cdpeq	0, 0, cr0, cr3, cr5, {0}
 340:	0b3b0b3a 	bleq	ec3030 <__bss_end__+0xeb0cec>
 344:	18021349 	stmdane	r2, {r0, r3, r6, r8, r9, ip}
 348:	2e3f0000 	cdpcs	0, 3, cr0, cr15, cr0, {0}
 34c:	03193f01 	tsteq	r9, #1, 30
 350:	3b0b3a0e 	blcc	2ceb90 <__bss_end__+0x2bc84c>
 354:	11192705 	tstne	r9, r5, lsl #14
 358:	40061201 	andmi	r1, r6, r1, lsl #4
 35c:	19429718 	stmdbne	r2, {r3, r4, r8, r9, sl, ip, pc}^
 360:	00001301 	andeq	r1, r0, r1, lsl #6
 364:	03000540 	movweq	r0, #1344	; 0x540
 368:	3b0b3a0e 	blcc	2ceba8 <__bss_end__+0x2bc864>
 36c:	02134905 	andseq	r4, r3, #81920	; 0x14000
 370:	41000017 	tstmi	r0, r7, lsl r0
 374:	0e030005 	cdpeq	0, 0, cr0, cr3, cr5, {0}
 378:	053b0b3a 	ldreq	r0, [fp, #-2874]!	; 0xb3a
 37c:	18021349 	stmdane	r2, {r0, r3, r6, r8, r9, ip}
 380:	34420000 	strbcc	r0, [r2], #-0
 384:	3a0e0300 	bcc	380f8c <__bss_end__+0x36ec48>
 388:	49053b0b 	stmdbmi	r5, {r0, r1, r3, r8, r9, fp, ip, sp}
 38c:	00170213 	andseq	r0, r7, r3, lsl r2
 390:	011d4300 	tsteq	sp, r0, lsl #6
 394:	01521331 	cmpeq	r2, r1, lsr r3
 398:	0b581755 	bleq	16060f4 <__bss_end__+0x15f3db0>
 39c:	13010559 	movwne	r0, #5465	; 0x1559
 3a0:	05440000 	strbeq	r0, [r4, #-0]
 3a4:	1c133100 	ldfnes	f3, [r3], {-0}
 3a8:	4500000b 	strmi	r0, [r0, #-11]
 3ac:	13310005 	teqne	r1, #5
 3b0:	0000061c 	andeq	r0, r0, ip, lsl r6
 3b4:	31011d46 	tstcc	r1, r6, asr #26
 3b8:	55015213 	strpl	r5, [r1, #-531]	; 0x213
 3bc:	590b5817 	stmdbpl	fp, {r0, r1, r2, r4, fp, ip, lr}
 3c0:	47000005 	strmi	r0, [r0, -r5]
 3c4:	0e03012e 	adfeqsp	f0, f3, #0.5
 3c8:	0b3b0b3a 	bleq	ec30b8 <__bss_end__+0xeb0d74>
 3cc:	13491927 	movtne	r1, #39207	; 0x9927
 3d0:	13010b20 	movwne	r0, #6944	; 0x1b20
 3d4:	2e480000 	cdpcs	0, 4, cr0, cr8, cr0, {0}
 3d8:	03193f01 	tsteq	r9, #1, 30
 3dc:	3b0b3a0e 	blcc	2cec1c <__bss_end__+0x2bc8d8>
 3e0:	11134905 	tstne	r3, r5, lsl #18
 3e4:	40061201 	andmi	r1, r6, r1, lsl #4
 3e8:	19429718 	stmdbne	r2, {r3, r4, r8, r9, sl, ip, pc}^
 3ec:	00001301 	andeq	r1, r0, r1, lsl #6
 3f0:	03003449 	movweq	r3, #1097	; 0x449
 3f4:	3b0b3a0e 	blcc	2cec34 <__bss_end__+0x2bc8f0>
 3f8:	02134905 	andseq	r4, r3, #81920	; 0x14000
 3fc:	4a000018 	bmi	464 <shift+0x464>
 400:	0e030034 	mcreq	0, 0, r0, cr3, cr4, {1}
 404:	053b0b3a 	ldreq	r0, [fp, #-2874]!	; 0xb3a
 408:	00001349 	andeq	r1, r0, r9, asr #6
 40c:	31011d4b 	tstcc	r1, fp, asr #26
 410:	12011113 	andne	r1, r1, #-1073741820	; 0xc0000004
 414:	590b5806 	stmdbpl	fp, {r1, r2, fp, ip, lr}
 418:	0013010b 	andseq	r0, r3, fp, lsl #2
 41c:	010b4c00 	tsteq	fp, r0, lsl #24
 420:	06120111 			; <UNDEFINED> instruction: 0x06120111
 424:	1d4d0000 	stclne	0, cr0, [sp, #-0]
 428:	11133101 	tstne	r3, r1, lsl #2
 42c:	58061201 	stmdapl	r6, {r0, r9, ip}
 430:	0105590b 	tsteq	r5, fp, lsl #18
 434:	4e000013 	mcrmi	0, 0, r0, cr0, cr3, {0}
 438:	13310034 	teqne	r1, #52	; 0x34
 43c:	00001802 	andeq	r1, r0, r2, lsl #16
 440:	55010b4f 	strpl	r0, [r1, #-2895]	; 0xb4f
 444:	00130117 	andseq	r0, r3, r7, lsl r1
 448:	00215000 	eoreq	r5, r1, r0
 44c:	052f1349 	streq	r1, [pc, #-841]!	; 10b <shift+0x10b>
 450:	34510000 	ldrbcc	r0, [r1], #-0
 454:	3a0e0300 	bcc	38105c <__bss_end__+0x36ed18>
 458:	490b3b0b 	stmdbmi	fp, {r0, r1, r3, r8, r9, fp, ip, sp}
 45c:	3c193f13 	ldccc	15, cr3, [r9], {19}
 460:	52000019 	andpl	r0, r0, #25
 464:	0e030034 	mcreq	0, 0, r0, cr3, cr4, {1}
 468:	0b3b0b3a 	bleq	ec3158 <__bss_end__+0xeb0e14>
 46c:	193f1349 	ldmdbne	pc!, {r0, r3, r6, r8, r9, ip}	; <UNPREDICTABLE>
 470:	00001802 	andeq	r1, r0, r2, lsl #16
 474:	03003453 	movweq	r3, #1107	; 0x453
 478:	3b0b3a0e 	blcc	2cecb8 <__bss_end__+0x2bc974>
 47c:	3f134905 	svccc	0x00134905
 480:	00180219 	andseq	r0, r8, r9, lsl r2
 484:	012e5400 	teqeq	lr, r0, lsl #8
 488:	0e03193f 	mcreq	9, 0, r1, cr3, cr15, {1}
 48c:	053b0b3a 	ldreq	r0, [fp, #-2874]!	; 0xb3a
 490:	13491927 	movtne	r1, #39207	; 0x9927
 494:	1301193c 	movwne	r1, #6460	; 0x193c
 498:	18550000 	ldmdane	r5, {}^	; <UNPREDICTABLE>
 49c:	56000000 	strpl	r0, [r0], -r0
 4a0:	193f012e 	ldmdbne	pc!, {r1, r2, r3, r5, r8}	; <UNPREDICTABLE>
 4a4:	0b3a0e03 	bleq	e83cb8 <__bss_end__+0xe71974>
 4a8:	19270b3b 	stmdbne	r7!, {r0, r1, r3, r4, r5, r8, r9, fp}
 4ac:	193c1349 	ldmdbne	ip!, {r0, r3, r6, r8, r9, ip}
 4b0:	00001301 	andeq	r1, r0, r1, lsl #6
 4b4:	3f012e57 	svccc	0x00012e57
 4b8:	3a0e0319 	bcc	381124 <__bss_end__+0x36ede0>
 4bc:	27053b0b 	strcs	r3, [r5, -fp, lsl #22]
 4c0:	01193c19 	tsteq	r9, r9, lsl ip
 4c4:	58000013 	stmdapl	r0, {r0, r1, r4}
 4c8:	193f012e 	ldmdbne	pc!, {r1, r2, r3, r5, r8}	; <UNPREDICTABLE>
 4cc:	0b3a0803 	bleq	e824e0 <__bss_end__+0xe7019c>
 4d0:	19270b3b 	stmdbne	r7!, {r0, r1, r3, r4, r5, r8, r9, fp}
 4d4:	193c1349 	ldmdbne	ip!, {r0, r3, r6, r8, r9, ip}
 4d8:	00001301 	andeq	r1, r0, r1, lsl #6
 4dc:	3f012e59 	svccc	0x00012e59
 4e0:	3a0e0319 	bcc	38114c <__bss_end__+0x36ee08>
 4e4:	270b3b0b 	strcs	r3, [fp, -fp, lsl #22]
 4e8:	01193c19 	tsteq	r9, r9, lsl ip
 4ec:	5a000013 	bpl	540 <shift+0x540>
 4f0:	193f002e 	ldmdbne	pc!, {r1, r2, r3, r5}	; <UNPREDICTABLE>
 4f4:	0b3a0e03 	bleq	e83d08 <__bss_end__+0xe719c4>
 4f8:	1927053b 	stmdbne	r7!, {r0, r1, r3, r4, r5, r8, sl}
 4fc:	193c1349 	ldmdbne	ip!, {r0, r3, r6, r8, r9, ip}
 500:	2e5b0000 	cdpcs	0, 5, cr0, cr11, cr0, {0}
 504:	03193f01 	tsteq	r9, #1, 30
 508:	4919270e 	ldmdbmi	r9, {r1, r2, r3, r8, r9, sl, sp}
 50c:	3c193413 	cfldrscc	mvf3, [r9], {19}
 510:	00130119 	andseq	r0, r3, r9, lsl r1
 514:	012e5c00 	teqeq	lr, r0, lsl #24
 518:	0e03193f 	mcreq	9, 0, r1, cr3, cr15, {1}
 51c:	0b3b0b3a 	bleq	ec320c <__bss_end__+0xeb0ec8>
 520:	19270e6e 	stmdbne	r7!, {r1, r2, r3, r5, r6, r9, sl, fp}
 524:	193c1349 	ldmdbne	ip!, {r0, r3, r6, r8, r9, ip}
 528:	00001301 	andeq	r1, r0, r1, lsl #6
 52c:	3f012e5d 	svccc	0x00012e5d
 530:	3a0e0319 	bcc	38119c <__bss_end__+0x36ee58>
 534:	270b3b0b 	strcs	r3, [fp, -fp, lsl #22]
 538:	3c134919 	ldccc	9, cr4, [r3], {25}
 53c:	00000019 	andeq	r0, r0, r9, lsl r0

Disassembly of section .debug_line:

00000000 <.debug_line>:
   0:	0000077a 	andeq	r0, r0, sl, ror r7
   4:	029f0002 	addseq	r0, pc, #2
   8:	01020000 	mrseq	r0, (UNDEF: 2)
   c:	000d0efb 	strdeq	r0, [sp], -fp
  10:	01010101 	tsteq	r1, r1, lsl #2
  14:	01000000 	mrseq	r0, (UNDEF: 0)
  18:	63010000 	movwvs	r0, #4096	; 0x1000
  1c:	72705c3a 	rsbsvc	r5, r0, #14848	; 0x3a00
  20:	6172676f 	cmnvs	r2, pc, ror #14
  24:	6966206d 	stmdbvs	r6!, {r0, r2, r3, r5, r6, sp}^
  28:	5c73656c 	cfldr64pl	mvdx6, [r3], #-432	; 0xfffffe50
  2c:	352d7364 	strcc	r7, [sp, #-868]!	; 0x364
  30:	2e357620 	cfmsuba32cs	mvax1, mvax7, mvfx5, mvfx0
  34:	302e3532 	eorcc	r3, lr, r2, lsr r5
  38:	5c77735c 	ldclpl	3, cr7, [r7], #-368	; 0xfffffe90
  3c:	5c636367 	stclpl	3, cr6, [r3], #-412	; 0xfffffe64
  40:	5c62696c 	stclpl	9, cr6, [r2], #-432	; 0xfffffe50
  44:	5c636367 	stclpl	3, cr6, [r3], #-412	; 0xfffffe64
  48:	2d6d7261 	sfmcs	f7, 2, [sp, #-388]!	; 0xfffffe7c
  4c:	756e696c 	strbvc	r6, [lr, #-2412]!	; 0x96c
  50:	6e672d78 	mcrvs	13, 3, r2, cr7, cr8, {3}
  54:	62616575 	rsbvs	r6, r1, #490733568	; 0x1d400000
  58:	5c666869 	stclpl	8, cr6, [r6], #-420	; 0xfffffe5c
  5c:	2e382e34 	mrccs	14, 1, r2, cr8, cr4, {1}
  60:	6e695c33 	mcrvs	12, 3, r5, cr9, cr3, {1}
  64:	64756c63 	ldrbtvs	r6, [r5], #-3171	; 0xc63
  68:	3a630065 	bcc	18c0204 <__bss_end__+0x18adec0>
  6c:	6f72705c 	svcvs	0x0072705c
  70:	6d617267 	sfmvs	f7, 2, [r1, #-412]!	; 0xfffffe64
  74:	6c696620 	stclvs	6, cr6, [r9], #-128	; 0xffffff80
  78:	645c7365 	ldrbvs	r7, [ip], #-869	; 0x365
  7c:	20352d73 	eorscs	r2, r5, r3, ror sp
  80:	322e3576 	eorcc	r3, lr, #494927872	; 0x1d800000
  84:	5c302e35 	ldcpl	14, cr2, [r0], #-212	; 0xffffff2c
  88:	675c7773 			; <UNDEFINED> instruction: 0x675c7773
  8c:	615c6363 	cmpvs	ip, r3, ror #6
  90:	6c2d6d72 	stcvs	13, cr6, [sp], #-456	; 0xfffffe38
  94:	78756e69 	ldmdavc	r5!, {r0, r3, r5, r6, r9, sl, fp, sp, lr}^
  98:	756e672d 	strbvc	r6, [lr, #-1837]!	; 0x72d
  9c:	69626165 	stmdbvs	r2!, {r0, r2, r5, r6, r8, sp, lr}^
  a0:	6c5c6668 	mrrcvs	6, 6, r6, ip, cr8
  a4:	5c636269 	sfmpl	f6, 2, [r3], #-420	; 0xfffffe5c
  a8:	5c727375 	ldclpl	3, cr7, [r2], #-468	; 0xfffffe2c
  ac:	6c636e69 	stclvs	14, cr6, [r3], #-420	; 0xfffffe5c
  b0:	5c656475 	cfstrdpl	mvd6, [r5], #-468	; 0xfffffe2c
  b4:	73746962 	cmnvc	r4, #1605632	; 0x188000
  b8:	5c3a6300 	ldcpl	3, cr6, [sl], #-0
  bc:	676f7270 			; <UNDEFINED> instruction: 0x676f7270
  c0:	206d6172 	rsbcs	r6, sp, r2, ror r1
  c4:	656c6966 	strbvs	r6, [ip, #-2406]!	; 0x966
  c8:	73645c73 	cmnvc	r4, #29440	; 0x7300
  cc:	7620352d 	strtvc	r3, [r0], -sp, lsr #10
  d0:	35322e35 	ldrcc	r2, [r2, #-3637]!	; 0xe35
  d4:	735c302e 	cmpvc	ip, #46	; 0x2e
  d8:	63675c77 	cmnvs	r7, #30464	; 0x7700
  dc:	72615c63 	rsbvc	r5, r1, #25344	; 0x6300
  e0:	696c2d6d 	stmdbvs	ip!, {r0, r2, r3, r5, r6, r8, sl, fp, sp}^
  e4:	2d78756e 	cfldr64cs	mvdx7, [r8, #-440]!	; 0xfffffe48
  e8:	65756e67 	ldrbvs	r6, [r5, #-3687]!	; 0xe67
  ec:	68696261 	stmdavs	r9!, {r0, r5, r6, r9, sp, lr}^
  f0:	696c5c66 	stmdbvs	ip!, {r1, r2, r5, r6, sl, fp, ip, lr}^
  f4:	755c6362 	ldrbvc	r6, [ip, #-866]	; 0x362
  f8:	695c7273 	ldmdbvs	ip, {r0, r1, r4, r5, r6, r9, ip, sp, lr}^
  fc:	756c636e 	strbvc	r6, [ip, #-878]!	; 0x36e
 100:	63006564 	movwvs	r6, #1380	; 0x564
 104:	72705c3a 	rsbsvc	r5, r0, #14848	; 0x3a00
 108:	6172676f 	cmnvs	r2, pc, ror #14
 10c:	6966206d 	stmdbvs	r6!, {r0, r2, r3, r5, r6, sp}^
 110:	5c73656c 	cfldr64pl	mvdx6, [r3], #-432	; 0xfffffe50
 114:	352d7364 	strcc	r7, [sp, #-868]!	; 0x364
 118:	2e357620 	cfmsuba32cs	mvax1, mvax7, mvfx5, mvfx0
 11c:	302e3532 	eorcc	r3, lr, r2, lsr r5
 120:	5c77735c 	ldclpl	3, cr7, [r7], #-368	; 0xfffffe90
 124:	5c636367 	stclpl	3, cr6, [r3], #-412	; 0xfffffe64
 128:	2d6d7261 	sfmcs	f7, 2, [sp, #-388]!	; 0xfffffe7c
 12c:	756e696c 	strbvc	r6, [lr, #-2412]!	; 0x96c
 130:	6e672d78 	mcrvs	13, 3, r2, cr7, cr8, {3}
 134:	62616575 	rsbvs	r6, r1, #490733568	; 0x1d400000
 138:	5c666869 	stclpl	8, cr6, [r6], #-420	; 0xfffffe5c
 13c:	6362696c 	cmnvs	r2, #108, 18	; 0x1b0000
 140:	7273755c 	rsbsvc	r7, r3, #92, 10	; 0x17000000
 144:	636e695c 	cmnvs	lr, #92, 18	; 0x170000
 148:	6564756c 	strbvs	r7, [r4, #-1388]!	; 0x56c
 14c:	6d73615c 	ldfvse	f6, [r3, #-368]!	; 0xfffffe90
 150:	6e65672d 	cdpvs	7, 6, cr6, cr5, cr13, {1}
 154:	63697265 	cmnvs	r9, #1342177286	; 0x50000006
 158:	5c3a6300 	ldcpl	3, cr6, [sl], #-0
 15c:	676f7270 			; <UNDEFINED> instruction: 0x676f7270
 160:	206d6172 	rsbcs	r6, sp, r2, ror r1
 164:	656c6966 	strbvs	r6, [ip, #-2406]!	; 0x966
 168:	73645c73 	cmnvc	r4, #29440	; 0x7300
 16c:	7620352d 	strtvc	r3, [r0], -sp, lsr #10
 170:	35322e35 	ldrcc	r2, [r2, #-3637]!	; 0xe35
 174:	735c302e 	cmpvc	ip, #46	; 0x2e
 178:	63675c77 	cmnvs	r7, #30464	; 0x7700
 17c:	72615c63 	rsbvc	r5, r1, #25344	; 0x6300
 180:	696c2d6d 	stmdbvs	ip!, {r0, r2, r3, r5, r6, r8, sl, fp, sp}^
 184:	2d78756e 	cfldr64cs	mvdx7, [r8, #-440]!	; 0xfffffe48
 188:	65756e67 	ldrbvs	r6, [r5, #-3687]!	; 0xe67
 18c:	68696261 	stmdavs	r9!, {r0, r5, r6, r9, sp, lr}^
 190:	696c5c66 	stmdbvs	ip!, {r1, r2, r5, r6, sl, fp, ip, lr}^
 194:	755c6362 	ldrbvc	r6, [ip, #-866]	; 0x362
 198:	695c7273 	ldmdbvs	ip, {r0, r1, r4, r5, r6, r9, ip, sp, lr}^
 19c:	756c636e 	strbvc	r6, [ip, #-878]!	; 0x36e
 1a0:	6c5c6564 	cfldr64vs	mvdx6, [ip], {100}	; 0x64
 1a4:	78756e69 	ldmdavc	r5!, {r0, r3, r5, r6, r9, sl, fp, sp, lr}^
 1a8:	5c3a6300 	ldcpl	3, cr6, [sl], #-0
 1ac:	676f7270 			; <UNDEFINED> instruction: 0x676f7270
 1b0:	206d6172 	rsbcs	r6, sp, r2, ror r1
 1b4:	656c6966 	strbvs	r6, [ip, #-2406]!	; 0x966
 1b8:	73645c73 	cmnvc	r4, #29440	; 0x7300
 1bc:	7620352d 	strtvc	r3, [r0], -sp, lsr #10
 1c0:	35322e35 	ldrcc	r2, [r2, #-3637]!	; 0xe35
 1c4:	735c302e 	cmpvc	ip, #46	; 0x2e
 1c8:	63675c77 	cmnvs	r7, #30464	; 0x7700
 1cc:	72615c63 	rsbvc	r5, r1, #25344	; 0x6300
 1d0:	696c2d6d 	stmdbvs	ip!, {r0, r2, r3, r5, r6, r8, sl, fp, sp}^
 1d4:	2d78756e 	cfldr64cs	mvdx7, [r8, #-440]!	; 0xfffffe48
 1d8:	65756e67 	ldrbvs	r6, [r5, #-3687]!	; 0xe67
 1dc:	68696261 	stmdavs	r9!, {r0, r5, r6, r9, sp, lr}^
 1e0:	696c5c66 	stmdbvs	ip!, {r1, r2, r5, r6, sl, fp, ip, lr}^
 1e4:	755c6362 	ldrbvc	r6, [ip, #-866]	; 0x362
 1e8:	695c7273 	ldmdbvs	ip, {r0, r1, r4, r5, r6, r9, ip, sp, lr}^
 1ec:	756c636e 	strbvc	r6, [ip, #-878]!	; 0x36e
 1f0:	735c6564 	cmpvc	ip, #100, 10	; 0x19000000
 1f4:	00007379 	andeq	r7, r0, r9, ror r3
 1f8:	72726f63 	rsbsvc	r6, r2, #396	; 0x18c
 1fc:	74616c65 	strbtvc	r6, [r1], #-3173	; 0xc65
 200:	00632e65 	rsbeq	r2, r3, r5, ror #28
 204:	73000000 	movwvc	r0, #0
 208:	65646474 	strbvs	r6, [r4, #-1140]!	; 0x474
 20c:	00682e66 	rsbeq	r2, r8, r6, ror #28
 210:	74000001 	strvc	r0, [r0], #-1
 214:	73657079 	cmnvc	r5, #121	; 0x79
 218:	0200682e 	andeq	r6, r0, #3014656	; 0x2e0000
 21c:	74730000 	ldrbtvc	r0, [r3], #-0
 220:	2e6f6964 	cdpcs	9, 6, cr6, cr15, cr4, {3}
 224:	00030068 	andeq	r0, r3, r8, rrx
 228:	62696c00 	rsbvs	r6, r9, #0, 24
 22c:	682e6f69 	stmdavs	lr!, {r0, r3, r5, r6, r8, r9, sl, fp, sp, lr}
 230:	00000300 	andeq	r0, r0, r0, lsl #6
 234:	6c647473 	cfstrdvs	mvd7, [r4], #-460	; 0xfffffe34
 238:	682e6269 	stmdavs	lr!, {r0, r3, r5, r6, r9, sp, lr}
 23c:	00000300 	andeq	r0, r0, r0, lsl #6
 240:	2d746e69 	ldclcs	14, cr6, [r4, #-420]!	; 0xfffffe5c
 244:	34366c6c 	ldrtcc	r6, [r6], #-3180	; 0xc6c
 248:	0400682e 	streq	r6, [r0], #-2094	; 0x82e
 24c:	65700000 	ldrbvs	r0, [r0, #-0]!
 250:	655f6672 	ldrbvs	r6, [pc, #-1650]	; fffffbe6 <__bss_end__+0xfffed8a2>
 254:	746e6576 	strbtvc	r6, [lr], #-1398	; 0x576
 258:	0500682e 	streq	r6, [r0, #-2094]	; 0x82e
 25c:	6e750000 	cdpvs	0, 7, cr0, cr5, cr0, {0}
 260:	64747369 	ldrbtvs	r7, [r4], #-873	; 0x369
 264:	0300682e 	movweq	r6, #2094	; 0x82e
 268:	63660000 	cmnvs	r6, #0
 26c:	2e6c746e 	cdpcs	4, 6, cr7, cr12, cr14, {3}
 270:	00030068 	andeq	r0, r3, r8, rrx
 274:	73736100 	cmnvc	r3, #0, 2
 278:	2e747265 	cdpcs	2, 7, cr7, cr4, cr5, {3}
 27c:	00030068 	andeq	r0, r3, r8, rrx
 280:	74616d00 	strbtvc	r6, [r1], #-3328	; 0xd00
 284:	6c616368 	stclvs	3, cr6, [r1], #-416	; 0xfffffe60
 288:	682e736c 	stmdavs	lr!, {r2, r3, r5, r6, r8, r9, ip, sp, lr}
 28c:	00000200 	andeq	r0, r0, r0, lsl #4
 290:	6e616d6d 	cdpvs	13, 6, cr6, cr1, cr13, {3}
 294:	0600682e 	streq	r6, [r0], -lr, lsr #16
 298:	623c0000 	eorsvs	r0, ip, #0
 29c:	746c6975 	strbtvc	r6, [ip], #-2421	; 0x975
 2a0:	3e6e692d 	cdpcc	9, 6, cr6, cr14, cr13, {1}
 2a4:	00000000 	andeq	r0, r0, r0
 2a8:	02050000 	andeq	r0, r5, #0
 2ac:	000093e8 	andeq	r9, r0, r8, ror #7
 2b0:	0102b803 	tsteq	r2, r3, lsl #16
 2b4:	ad232b15 	fstmdbxge	r3!, {d2-d11}	;@ Deprecated
 2b8:	4a7df303 	bmi	1f7cecc <__bss_end__+0x1f6ab88>
 2bc:	1e222c14 	mcrne	12, 1, r2, cr2, cr4, {0}
 2c0:	212d4b22 	teqcs	sp, r2, lsr #22
 2c4:	313d3d2f 	teqcc	sp, pc, lsr #26
 2c8:	ae301e30 	mrcge	14, 1, r1, cr0, cr0, {1}
 2cc:	04020048 	streq	r0, [r2], #-72	; 0x48
 2d0:	02003002 	andeq	r3, r0, #2
 2d4:	8f080204 	svchi	0x00080204
 2d8:	02040200 	andeq	r0, r4, #0, 4
 2dc:	04020021 	streq	r0, [r2], #-33	; 0x21
 2e0:	0200b902 	andeq	fp, r0, #32768	; 0x8000
 2e4:	06210204 	strteq	r0, [r1], -r4, lsl #4
 2e8:	65061208 	strvs	r1, [r6, #-520]	; 0x208
 2ec:	2d218121 	stfcsd	f0, [r1, #-132]!	; 0xffffff7c
 2f0:	02004722 	andeq	r4, r0, #8912896	; 0x880000
 2f4:	2e060104 	adfcss	f0, f6, f4
 2f8:	08090306 	stmdaeq	r9, {r1, r2, r8, r9}
 2fc:	301e303c 	andscc	r3, lr, ip, lsr r0
 300:	00214991 	mlaeq	r1, r1, r9, r4
 304:	06020402 	streq	r0, [r2], -r2, lsl #8
 308:	0402002e 	streq	r0, [r2], #-46	; 0x2e
 30c:	00490602 	subeq	r0, r9, r2, lsl #12
 310:	21020402 	tstcs	r2, r2, lsl #8
 314:	02040200 	andeq	r0, r4, #0, 4
 318:	00113702 	andseq	r3, r1, r2, lsl #14
 31c:	21020402 	tstcs	r2, r2, lsl #8
 320:	9d06ac06 	stcls	12, cr10, [r6, #-24]	; 0xffffffe8
 324:	9d212d21 	stcls	13, cr2, [r1, #-132]!	; 0xffffff7c
 328:	0b034822 	bleq	d23b8 <__bss_end__+0xc0074>
 32c:	2e750366 	cdpcs	3, 7, cr0, cr5, cr6, {3}
 330:	3c200b03 	stccc	11, cr0, [r0], #-12
 334:	914a7503 	cmpls	sl, r3, lsl #10
 338:	2f652f49 	svccs	0x00652f49
 33c:	21113902 	tstcs	r1, r2, lsl #18
 340:	2d214908 	stccs	9, cr4, [r1, #-32]!	; 0xffffffe0
 344:	0e039d21 	cdpeq	13, 0, cr9, cr3, cr1, {1}
 348:	04020020 	streq	r0, [r2], #-32
 34c:	0206f302 	andeq	pc, r6, #134217728	; 0x8000000
 350:	8106124a 	tsthi	r6, sl, asr #4
 354:	49212d21 	stmdbmi	r1!, {r0, r5, r8, sl, fp, sp}
 358:	58700322 	ldmdapl	r0!, {r1, r5, r8, r9}^
 35c:	792e0e03 	stmdbvc	lr!, {r0, r1, r9, sl, fp}
 360:	91683a14 	cmnls	r8, r4, lsl sl
 364:	2f2d212d 	svccs	0x002d212d
 368:	79115202 	ldmdbvc	r1, {r1, r9, ip, lr}
 36c:	03423337 	movteq	r3, #9015	; 0x2337
 370:	0b032e75 	bleq	cbd4c <__bss_end__+0xb9a08>
 374:	75032e20 	strvc	r2, [r3, #-3616]	; 0xe20
 378:	21819f4a 	orrcs	r9, r1, sl, asr #30
 37c:	3602212d 	strcc	r2, [r2], -sp, lsr #2
 380:	03ab2111 			; <UNDEFINED> instruction: 0x03ab2111
 384:	304b2e11 	subcc	r2, fp, r1, lsl lr
 388:	3e1e302c 	cdpcc	0, 1, cr3, cr14, cr12, {1}
 38c:	005a4c2c 	subseq	r4, sl, ip, lsr #24
 390:	bb020402 	bllt	813a0 <__bss_end__+0x6f05c>
 394:	12400206 	subne	r0, r0, #1610612736	; 0x60000000
 398:	033ec706 	teqeq	lr, #1572864	; 0x180000
 39c:	16034a68 	strne	r4, [r3], -r8, ror #20
 3a0:	2220342e 	eorcs	r3, r0, #771751936	; 0x2e000000
 3a4:	0067222c 	rsbeq	r2, r7, ip, lsr #4
 3a8:	2f020402 	svccs	0x00020402
 3ac:	02040200 	andeq	r0, r4, #0, 4
 3b0:	2d21309d 	stccs	0, cr3, [r1, #-628]!	; 0xfffffd8c
 3b4:	3c2e1003 	stccc	0, cr1, [lr], #-12
 3b8:	04020034 	streq	r0, [r2], #-52	; 0x34
 3bc:	2e069301 	cdpcs	3, 0, cr9, cr6, cr1, {0}
 3c0:	01040200 	mrseq	r0, R12_usr
 3c4:	58064c06 	stmdapl	r6, {r1, r2, sl, fp, lr}
 3c8:	02040200 	andeq	r0, r4, #0, 4
 3cc:	02005906 	andeq	r5, r0, #98304	; 0x18000
 3d0:	00ab0204 	adceq	r0, fp, r4, lsl #4
 3d4:	21020402 	tstcs	r2, r2, lsl #8
 3d8:	02040200 	andeq	r0, r4, #0, 4
 3dc:	552c2349 	strpl	r2, [ip, #-841]!	; 0x349
 3e0:	034a0a03 	movteq	r0, #43523	; 0xaa03
 3e4:	0d035873 	stceq	8, cr5, [r3, #-460]	; 0xfffffe34
 3e8:	20730320 	rsbscs	r0, r3, r0, lsr #6
 3ec:	032e1903 	teqeq	lr, #49152	; 0xc000
 3f0:	38033c6a 	stmdacc	r3, {r1, r3, r5, r6, sl, fp, ip, sp}
 3f4:	4c21012e 	stfmis	f0, [r1], #-184	; 0xffffff48
 3f8:	3e1e1f23 	cdpcc	15, 1, cr1, cr14, cr3, {1}
 3fc:	50133024 	andspl	r3, r3, r4, lsr #32
 400:	7a032622 	bvc	c9c90 <__bss_end__+0xb794c>
 404:	21212220 	teqcs	r1, r0, lsr #4
 408:	22332422 	eorscs	r2, r3, #570425344	; 0x22000000
 40c:	2e7a0326 	cdpcs	3, 7, cr0, cr10, cr6, {1}
 410:	22212122 	eorcs	r2, r1, #-2147483640	; 0x80000008
 414:	3c0c0325 	stccc	3, cr0, [ip], {37}	; 0x25
 418:	2e7a0342 	cdpcs	3, 7, cr0, cr10, cr2, {2}
 41c:	1b3c0d03 	blne	f03830 <__bss_end__+0xef14ec>
 420:	5d03763e 	stcpl	6, cr7, [r3, #-248]	; 0xffffff08
 424:	201f032e 	andscs	r0, pc, lr, lsr #6
 428:	034a0b03 	movteq	r0, #43779	; 0xab03
 42c:	76032e77 			; <UNDEFINED> instruction: 0x76032e77
 430:	2050032e 	subscs	r0, r0, lr, lsr #6
 434:	032e3c03 	teqeq	lr, #768	; 0x300
 438:	20032e61 	andcs	r2, r3, r1, ror #28
 43c:	205e033c 	subscs	r0, lr, ip, lsr r3
 440:	03201b03 	teqeq	r0, #3072	; 0xc00
 444:	19032e69 	stmdbne	r3, {r0, r3, r5, r6, r9, sl, fp, sp}
 448:	2a30302e 	bcs	c0c508 <__bss_end__+0xbfa1c4>
 44c:	032f3030 	teqeq	pc, #48	; 0x30
 450:	30302e79 	eorscc	r2, r0, r9, ror lr
 454:	30302a30 	eorscc	r2, r0, r0, lsr sl
 458:	3c79032f 	ldclcc	3, cr0, [r9], #-188	; 0xffffff44
 45c:	2a303030 	bcs	c0c524 <__bss_end__+0xbfa1e0>
 460:	422f3030 	eormi	r3, pc, #48	; 0x30
 464:	2e7fbd03 	cdpcs	13, 7, cr11, cr15, cr3, {0}
 468:	222e1903 	eorcs	r1, lr, #49152	; 0xc000
 46c:	00222121 	eoreq	r2, r2, r1, lsr #2
 470:	03010402 	movweq	r0, #5122	; 0x1402
 474:	033e2056 	teqeq	lr, #86	; 0x56
 478:	032e00ca 	teqeq	lr, #202	; 0xca
 47c:	3e2e7fb6 	mcrcc	15, 1, r7, cr14, cr6, {5}
 480:	2000d403 	andcs	sp, r0, r3, lsl #8
 484:	034a7403 	movteq	r7, #41987	; 0xa403
 488:	0e032017 	mcreq	0, 0, r2, cr3, cr7, {0}
 48c:	212d133c 	teqcs	sp, ip, lsr r3
 490:	024c212d 	subeq	r2, ip, #1073741835	; 0x4000000b
 494:	01010003 	tsteq	r1, r3
 498:	48020500 	stmdami	r2, {r8, sl}
 49c:	03000087 	movweq	r0, #135	; 0x87
 4a0:	2c220118 	stfcss	f0, [r2], #-96	; 0xffffffa0
 4a4:	2f3b3e22 	svccs	0x003b3e22
 4a8:	75222d57 	strvc	r2, [r2, #-3415]!	; 0xd57
 4ac:	3c02bb03 	stccc	11, cr11, [r2], {3}
 4b0:	032e0e03 	teqeq	lr, #3, 28	; 0x30
 4b4:	0e032e72 	mcreq	14, 0, r2, cr3, cr2, {3}
 4b8:	2e72032e 	cdpcs	3, 7, cr0, cr2, cr14, {1}
 4bc:	032e0e03 	teqeq	lr, #3, 28	; 0x30
 4c0:	0e032e72 	mcreq	14, 0, r2, cr3, cr2, {3}
 4c4:	19088720 	stmdbne	r8, {r5, r8, r9, sl, pc}
 4c8:	27207903 	strcs	r7, [r0, -r3, lsl #18]!
 4cc:	0903c033 	stmdbeq	r3, {r0, r1, r4, r5, lr, pc}
 4d0:	2a322a3c 	bcs	c8adc8 <__bss_end__+0xc78a84>
 4d4:	7a24704e 	bvc	91c614 <__bss_end__+0x90a2d0>
 4d8:	3c7dba03 	ldclcc	10, cr11, [sp], #-12
 4dc:	2e02d403 	cdpcs	4, 0, cr13, cr2, cr3, {0}
 4e0:	2e7dd403 	cdpcs	4, 7, cr13, cr13, cr3, {0}
 4e4:	2e02b603 	cfmadd32cs	mvax0, mvfx11, mvfx2, mvfx3
 4e8:	2e7dc803 	cdpcs	8, 7, cr12, cr13, cr3, {0}
 4ec:	3c02ab03 	stccc	11, cr10, [r2], {3}
 4f0:	7dac034d 	stcvc	3, cr0, [ip, #308]!	; 0x134
 4f4:	02de032e 	sbcseq	r0, lr, #-1207959552	; 0xb8000000
 4f8:	2e76032e 	cdpcs	3, 7, cr0, cr6, cr14, {1}
 4fc:	04020031 	streq	r0, [r2], #-49	; 0x31
 500:	7fbb0301 	svcvc	0x00bb0301
 504:	04020082 	streq	r0, [r2], #-130	; 0x82
 508:	7ded0302 	stclvc	3, cr0, [sp, #8]!
 50c:	370221f2 			; <UNDEFINED> instruction: 0x370221f2
 510:	21572111 	cmpcs	r7, r1, lsl r1
 514:	21492fab 	smlaltbcs	r2, r9, fp, pc	; <UNPREDICTABLE>
 518:	200f03b9 			; <UNDEFINED> instruction: 0x200f03b9
 51c:	19018702 	stmdbne	r1, {r1, r8, r9, sl, pc}
 520:	2165212d 	cmncs	r5, sp, lsr #2
 524:	3d113802 	ldccc	8, cr3, [r1, #-8]
 528:	2e1103c7 	cdpcs	3, 1, cr0, cr1, cr7, {6}
 52c:	3f5a626b 	svccc	0x005a626b
 530:	4b113102 	blmi	44c940 <__bss_end__+0x43a5fc>
 534:	81750849 	cmnhi	r5, r9, asr #16
 538:	02005721 	andeq	r5, r0, #8650752	; 0x840000
 53c:	c5030204 	strgt	r0, [r3, #-516]	; 0x204
 540:	02002002 	andeq	r2, r0, #2
 544:	70030204 	andvc	r0, r3, r4, lsl #4
 548:	810349ac 	smlatbhi	r3, ip, r9, r4
 54c:	574a087d 	smlsldxpl	r0, sl, sp, r8
 550:	033d1f21 	teqeq	sp, #33, 30	; 0x84
 554:	38c803ab 	stmiacc	r8, {r0, r1, r3, r5, r7, r8, r9}^
 558:	03401c32 	movteq	r1, #3122	; 0xc32
 55c:	77207dc4 	strvc	r7, [r0, -r4, asr #27]!
 560:	0f01e302 	svceq	0x0001e302
 564:	033c0a03 	teqeq	ip, #12288	; 0x3000
 568:	0d034a73 	vstreq	s8, [r3, #-460]	; 0xfffffe34
 56c:	2e730320 	cdpcs	3, 7, cr0, cr3, cr0, {1}
 570:	03200d03 	teqeq	r0, #3, 26	; 0xc0
 574:	94032e73 	strls	r2, [r3], #-3699	; 0xe73
 578:	21572e7f 	cmpcs	r7, pc, ror lr
 57c:	b4033d1f 	strlt	r3, [r3], #-3359	; 0xd1f
 580:	7203c803 	andvc	ip, r3, #196608	; 0x30000
 584:	200e0320 	andcs	r0, lr, r0, lsr #6
 588:	03587203 	cmpeq	r8, #805306368	; 0x30000000
 58c:	7203200e 	andvc	r2, r3, #14
 590:	2e13032e 	cdpcs	3, 1, cr0, cr3, cr14, {1}
 594:	0029244b 	eoreq	r2, r9, fp, asr #8
 598:	4d010402 	cfstrsmi	mvf0, [r1, #-8]
 59c:	02040200 	andeq	r0, r4, #0, 4
 5a0:	0402004b 	streq	r0, [r2], #-75	; 0x4b
 5a4:	02001f02 	andeq	r1, r0, #2, 30
 5a8:	02210204 	eoreq	r0, r1, #4, 4	; 0x40000000
 5ac:	65211144 	strvs	r1, [r1, #-324]!	; 0x144
 5b0:	62221f21 	eorvs	r1, r2, #33, 30	; 0x84
 5b4:	1103c424 	tstne	r3, r4, lsr #8
 5b8:	7cb4032e 	ldcvc	3, cr0, [r4], #184	; 0xb8
 5bc:	03cc034a 	biceq	r0, ip, #671088641	; 0x28000001
 5c0:	7cb5032e 	ldcvc	3, cr0, [r5], #184	; 0xb8
 5c4:	032f492e 	teqeq	pc, #753664	; 0xb8000
 5c8:	b69003cb 	ldrlt	r0, [r0], fp, asr #7
 5cc:	7cb50332 	ldcvc	3, cr0, [r5], #200	; 0xc8
 5d0:	032f492e 	teqeq	pc, #753664	; 0xb8000
 5d4:	039003d5 	orrseq	r0, r0, #1409286147	; 0x54000003
 5d8:	0f035871 	svceq	0x00035871
 5dc:	2e710320 	cdpcs	3, 7, cr0, cr1, cr0, {1}
 5e0:	63201603 	teqvs	r0, #3145728	; 0x300000
 5e4:	2f234723 	svccs	0x00234723
 5e8:	4a09031f 	bmi	24126c <__bss_end__+0x22ef28>
 5ec:	01040200 	mrseq	r0, R12_usr
 5f0:	04020037 	streq	r0, [r2], #-55	; 0x37
 5f4:	0200c902 	andeq	ip, r0, #32768	; 0x8000
 5f8:	001f0204 	andseq	r0, pc, r4, lsl #4
 5fc:	75020402 	strvc	r0, [r2, #-1026]	; 0x402
 600:	02040200 	andeq	r0, r4, #0, 4
 604:	04020065 	streq	r0, [r2], #-101	; 0x65
 608:	02002102 	andeq	r2, r0, #-2147483648	; 0x80000000
 60c:	00590204 	subseq	r0, r9, r4, lsl #4
 610:	2d020402 	cfstrscs	mvf0, [r2, #-8]
 614:	02040200 	andeq	r0, r4, #0, 4
 618:	04020059 	streq	r0, [r2], #-89	; 0x59
 61c:	02006502 	andeq	r6, r0, #8388608	; 0x800000
 620:	00210204 	eoreq	r0, r1, r4, lsl #4
 624:	d5020402 	strle	r0, [r2, #-1026]	; 0x402
 628:	02040200 	andeq	r0, r4, #0, 4
 62c:	04020067 	streq	r0, [r2], #-103	; 0x67
 630:	02002d02 	andeq	r2, r0, #2, 26	; 0x80
 634:	00750204 	rsbseq	r0, r5, r4, lsl #4
 638:	1f020402 	svcne	0x00020402
 63c:	02040200 	andeq	r0, r4, #0, 4
 640:	04020021 	streq	r0, [r2], #-33	; 0x21
 644:	02004902 	andeq	r4, r0, #32768	; 0x8000
 648:	002f0204 	eoreq	r0, pc, r4, lsl #4
 64c:	1f020402 	svcne	0x00020402
 650:	02040200 	andeq	r0, r4, #0, 4
 654:	0402002f 	streq	r0, [r2], #-47	; 0x2f
 658:	02002d02 	andeq	r2, r0, #2, 26	; 0x80
 65c:	00590204 	subseq	r0, r9, r4, lsl #4
 660:	1f020402 	svcne	0x00020402
 664:	02040200 	andeq	r0, r4, #0, 4
 668:	04020021 	streq	r0, [r2], #-33	; 0x21
 66c:	02004902 	andeq	r4, r0, #32768	; 0x8000
 670:	002f0204 	eoreq	r0, pc, r4, lsl #4
 674:	1f020402 	svcne	0x00020402
 678:	02040200 	andeq	r0, r4, #0, 4
 67c:	0402002f 	streq	r0, [r2], #-47	; 0x2f
 680:	02002d02 	andeq	r2, r0, #2, 26	; 0x80
 684:	00590204 	subseq	r0, r9, r4, lsl #4
 688:	1f020402 	svcne	0x00020402
 68c:	02040200 	andeq	r0, r4, #0, 4
 690:	04020021 	streq	r0, [r2], #-33	; 0x21
 694:	02004902 	andeq	r4, r0, #32768	; 0x8000
 698:	002f0204 	eoreq	r0, pc, r4, lsl #4
 69c:	1f020402 	svcne	0x00020402
 6a0:	02040200 	andeq	r0, r4, #0, 4
 6a4:	0402002f 	streq	r0, [r2], #-47	; 0x2f
 6a8:	02002d02 	andeq	r2, r0, #2, 26	; 0x80
 6ac:	00590204 	subseq	r0, r9, r4, lsl #4
 6b0:	1f020402 	svcne	0x00020402
 6b4:	02040200 	andeq	r0, r4, #0, 4
 6b8:	04020021 	streq	r0, [r2], #-33	; 0x21
 6bc:	02004902 	andeq	r4, r0, #32768	; 0x8000
 6c0:	002f0204 	eoreq	r0, pc, r4, lsl #4
 6c4:	1f020402 	svcne	0x00020402
 6c8:	02040200 	andeq	r0, r4, #0, 4
 6cc:	0402002f 	streq	r0, [r2], #-47	; 0x2f
 6d0:	02002d02 	andeq	r2, r0, #2, 26	; 0x80
 6d4:	00590204 	subseq	r0, r9, r4, lsl #4
 6d8:	1f020402 	svcne	0x00020402
 6dc:	02040200 	andeq	r0, r4, #0, 4
 6e0:	04020021 	streq	r0, [r2], #-33	; 0x21
 6e4:	02004902 	andeq	r4, r0, #32768	; 0x8000
 6e8:	002f0204 	eoreq	r0, pc, r4, lsl #4
 6ec:	2d020402 	cfstrscs	mvf0, [r2, #-8]
 6f0:	02040200 	andeq	r0, r4, #0, 4
 6f4:	0402002f 	streq	r0, [r2], #-47	; 0x2f
 6f8:	02003b02 	andeq	r3, r0, #2048	; 0x800
 6fc:	00590204 	subseq	r0, r9, r4, lsl #4
 700:	2d020402 	cfstrscs	mvf0, [r2, #-8]
 704:	02040200 	andeq	r0, r4, #0, 4
 708:	04020021 	streq	r0, [r2], #-33	; 0x21
 70c:	02002d02 	andeq	r2, r0, #2, 26	; 0x80
 710:	aa210204 	bge	840f28 <__bss_end__+0x82ebe4>
 714:	212d2175 	teqcs	sp, r5, ror r1
 718:	213a3d1f 	teqcs	sl, pc, lsl sp
 71c:	30251e21 	eorcc	r1, r5, r1, lsr #28
 720:	7803ad1d 	stmdavc	r3, {r0, r2, r3, r4, r8, sl, fp, sp, pc}
 724:	7903354a 	stmdbvc	r3, {r1, r3, r6, r8, sl, ip, sp}
 728:	1c32352e 	cfldr32ne	mvfx3, [r2], #-184	; 0xffffff48
 72c:	79032a24 	stmdbvc	r3, {r2, r5, r9, fp, sp}
 730:	4a0e034a 	bmi	381460 <__bss_end__+0x36f11c>
 734:	2c3e3d75 	ldccs	13, cr3, [lr], #-468	; 0xfffffe2c
 738:	7eab0330 	mcrvc	3, 5, r0, cr11, cr0, {1}
 73c:	01d8034a 	bicseq	r0, r8, sl, asr #6
 740:	7ea80390 	mcrvc	3, 5, r0, cr8, cr0, {4}
 744:	01d90382 	bicseq	r0, r9, r2, lsl #7
 748:	40878490 	umullmi	r8, r7, r0, r4
 74c:	827ec403 	rsbshi	ip, lr, #50331648	; 0x3000000
 750:	034b1f2f 	movteq	r1, #48943	; 0xbf2f
 754:	302001b3 	strhtcc	r0, [r0], -r3
 758:	033d4b1e 	teqeq	sp, #30720	; 0x7800
 75c:	2f207ef0 	svccs	0x00207ef0
 760:	70034b1f 	andvc	r4, r3, pc, lsl fp
 764:	4b1e3020 	blmi	78c7ec <__bss_end__+0x77a4a8>
 768:	0001023d 	andeq	r0, r1, sp, lsr r2
 76c:	05000101 	streq	r0, [r0, #-257]	; 0x101
 770:	00873802 	addeq	r3, r7, r2, lsl #16
 774:	011f0300 	tsteq	pc, r0, lsl #6
 778:	00070213 	andeq	r0, r7, r3, lsl r2
 77c:	Address 0x0000077c is out of bounds.


Disassembly of section .debug_frame:

00000000 <.debug_frame>:
   0:	0000000c 	andeq	r0, r0, ip
   4:	ffffffff 			; <UNDEFINED> instruction: 0xffffffff
   8:	7c020001 	stcvc	0, cr0, [r2], {1}
   c:	000d0c0e 	andeq	r0, sp, lr, lsl #24
  10:	00000018 	andeq	r0, r0, r8, lsl r0
  14:	00000000 	andeq	r0, r0, r0
  18:	000093e8 	andeq	r9, r0, r8, ror #7
  1c:	00000024 	andeq	r0, r0, r4, lsr #32
  20:	84080e43 	strhi	r0, [r8], #-3651	; 0xe43
  24:	4c018502 	cfstr32mi	mvfx8, [r1], {2}
  28:	000ec4c5 	andeq	ip, lr, r5, asr #9
  2c:	00000020 	andeq	r0, r0, r0, lsr #32
  30:	00000000 	andeq	r0, r0, r0
  34:	00008748 	andeq	r8, r0, r8, asr #14
  38:	0000003a 	andeq	r0, r0, sl, lsr r0
  3c:	84140e41 	ldrhi	r0, [r4], #-3649	; 0xe41
  40:	86048505 	strhi	r8, [r4], -r5, lsl #10
  44:	8e028703 	cdphi	7, 0, cr8, cr2, cr3, {0}
  48:	200e4301 	andcs	r4, lr, r1, lsl #6
  4c:	00140e58 	andseq	r0, r4, r8, asr lr
  50:	0000000c 	andeq	r0, r0, ip
  54:	00000000 	andeq	r0, r0, r0
  58:	00008738 	andeq	r8, r0, r8, lsr r7
  5c:	0000000e 	andeq	r0, r0, lr
  60:	0000001c 	andeq	r0, r0, ip, lsl r0
  64:	00000000 	andeq	r0, r0, r0
  68:	0000940c 	andeq	r9, r0, ip, lsl #8
  6c:	0000002c 	andeq	r0, r0, ip, lsr #32
  70:	84080e43 	strhi	r0, [r8], #-3651	; 0xe43
  74:	42018e02 	andmi	r8, r1, #2, 28
  78:	0e50100e 	cdpeq	0, 5, cr1, cr0, cr14, {0}
  7c:	00000008 	andeq	r0, r0, r8
  80:	00000034 	andeq	r0, r0, r4, lsr r0
  84:	00000000 	andeq	r0, r0, r0
  88:	00009438 	andeq	r9, r0, r8, lsr r4
  8c:	000000f8 	strdeq	r0, [r0], -r8
  90:	83200e42 	teqhi	r0, #1056	; 0x420
  94:	85078408 	strhi	r8, [r7, #-1032]	; 0x408
  98:	87058606 	strhi	r8, [r5, -r6, lsl #12]
  9c:	89038804 	stmdbhi	r3, {r2, fp, pc}
  a0:	43018e02 	movwmi	r8, #7682	; 0x1e02
  a4:	5005300e 	andpl	r3, r5, lr
  a8:	0a52050c 	beq	14814e0 <__bss_end__+0x146f19c>
  ac:	060a5f02 	streq	r5, [sl], -r2, lsl #30
  b0:	0e500652 	mrceq	6, 2, r0, cr0, cr2, {2}
  b4:	000b4220 	andeq	r4, fp, r0, lsr #4
  b8:	00000038 	andeq	r0, r0, r8, lsr r0
  bc:	00000000 	andeq	r0, r0, r0
  c0:	00009530 	andeq	r9, r0, r0, lsr r5
  c4:	00000100 	andeq	r0, r0, r0, lsl #2
  c8:	83200e42 	teqhi	r0, #1056	; 0x420
  cc:	85078408 	strhi	r8, [r7, #-1032]	; 0x408
  d0:	87058606 	strhi	r8, [r5, -r6, lsl #12]
  d4:	89038804 	stmdbhi	r3, {r2, fp, pc}
  d8:	43018e02 	movwmi	r8, #7682	; 0x1e02
  dc:	5005380e 	andpl	r3, r5, lr, lsl #16
  e0:	0c52050e 	cfldr64eq	mvdx0, [r2], {14}
  e4:	020a5405 	andeq	r5, sl, #83886080	; 0x5000000
  e8:	54060a73 	strpl	r0, [r6], #-2675	; 0xa73
  ec:	50065206 	andpl	r5, r6, r6, lsl #4
  f0:	0b42200e 	bleq	1088130 <__bss_end__+0x1075dec>
  f4:	00000040 	andeq	r0, r0, r0, asr #32
  f8:	00000000 	andeq	r0, r0, r0
  fc:	00009630 	andeq	r9, r0, r0, lsr r6
 100:	000001f0 	strdeq	r0, [r0], -r0	; <UNPREDICTABLE>
 104:	84240e42 	strthi	r0, [r4], #-3650	; 0xe42
 108:	86088509 	strhi	r8, [r8], -r9, lsl #10
 10c:	88068707 	stmdahi	r6, {r0, r1, r2, r8, r9, sl, pc}
 110:	8a048905 	bhi	12252c <__bss_end__+0x1101e8>
 114:	8e028b03 	vmlahi.f64	d8, d2, d3
 118:	3c0e4301 	stccc	3, cr4, [lr], {1}
 11c:	050f5005 	streq	r5, [pc, #-5]	; 11f <shift+0x11f>
 120:	54050d52 	strpl	r0, [r5], #-3410	; 0xd52
 124:	480e410b 	stmdami	lr, {r0, r1, r3, r8, lr}
 128:	0e0ae502 	cfsh32eq	mvfx14, mvfx10, #2
 12c:	5406423c 	strpl	r4, [r6], #-572	; 0x23c
 130:	50065206 	andpl	r5, r6, r6, lsl #4
 134:	0b42240e 	bleq	1089174 <__bss_end__+0x1076e30>
 138:	00000028 	andeq	r0, r0, r8, lsr #32
 13c:	00000000 	andeq	r0, r0, r0
 140:	00009820 	andeq	r9, r0, r0, lsr #16
 144:	000000f2 	strdeq	r0, [r0], -r2
 148:	84180e45 	ldrhi	r0, [r8], #-3653	; 0xe45
 14c:	86058506 	strhi	r8, [r5], -r6, lsl #10
 150:	88038704 	stmdahi	r3, {r2, r8, r9, sl, pc}
 154:	02018e02 	andeq	r8, r1, #2, 28
 158:	c4000e72 	strgt	r0, [r0], #-3698	; 0xe72
 15c:	c8c7c6c5 	stmiagt	r7, {r0, r2, r6, r7, r9, sl, lr, pc}^
 160:	000000ce 	andeq	r0, r0, lr, asr #1
 164:	00000034 	andeq	r0, r0, r4, lsr r0
 168:	00000000 	andeq	r0, r0, r0
 16c:	00009914 	andeq	r9, r0, r4, lsl r9
 170:	000001c0 	andeq	r0, r0, r0, asr #3
 174:	83280e42 	teqhi	r8, #1056	; 0x420
 178:	8509840a 	strhi	r8, [r9, #-1034]	; 0x40a
 17c:	87078608 	strhi	r8, [r7, -r8, lsl #12]
 180:	89058806 	stmdbhi	r5, {r1, r2, fp, pc}
 184:	8b038a04 	blhi	e299c <__bss_end__+0xd0658>
 188:	43018e02 	movwmi	r8, #7682	; 0x1e02
 18c:	5005300e 	andpl	r3, r5, lr
 190:	0ad5020c 	beq	ff5409c8 <__bss_end__+0xff52e684>
 194:	280e5006 	stmdacs	lr, {r1, r2, ip, lr}
 198:	00000b42 	andeq	r0, r0, r2, asr #22
 19c:	00000020 	andeq	r0, r0, r0, lsr #32
 1a0:	00000000 	andeq	r0, r0, r0
 1a4:	00009ad4 	ldrdeq	r9, [r0], -r4
 1a8:	0000003c 	andeq	r0, r0, ip, lsr r0
 1ac:	84100e41 	ldrhi	r0, [r0], #-3649	; 0xe41
 1b0:	86038504 	strhi	r8, [r3], -r4, lsl #10
 1b4:	5b018e02 	blpl	639c4 <__bss_end__+0x51680>
 1b8:	c4c5c6ce 	strbgt	ip, [r5], #1742	; 0x6ce
 1bc:	0000000e 	andeq	r0, r0, lr
 1c0:	0000002c 	andeq	r0, r0, ip, lsr #32
 1c4:	00000000 	andeq	r0, r0, r0
 1c8:	00009b10 	andeq	r9, r0, r0, lsl fp
 1cc:	00000090 	muleq	r0, r0, r0
 1d0:	84240e42 	strthi	r0, [r4], #-3650	; 0xe42
 1d4:	86088509 	strhi	r8, [r8], -r9, lsl #10
 1d8:	88068707 	stmdahi	r6, {r0, r1, r2, r8, r9, sl, pc}
 1dc:	8a048905 	bhi	1225f8 <__bss_end__+0x1102b4>
 1e0:	8e028b03 	vmlahi.f64	d8, d2, d3
 1e4:	400e4101 	andmi	r4, lr, r1, lsl #2
 1e8:	0e0a4102 	adfeqe	f4, f2, f2
 1ec:	000b4224 	andeq	r4, fp, r4, lsr #4
 1f0:	0000000c 	andeq	r0, r0, ip
 1f4:	00000000 	andeq	r0, r0, r0
 1f8:	00009ba0 	andeq	r9, r0, r0, lsr #23
 1fc:	0000001a 	andeq	r0, r0, sl, lsl r0
 200:	0000000c 	andeq	r0, r0, ip
 204:	00000000 	andeq	r0, r0, r0
 208:	00009bbc 			; <UNDEFINED> instruction: 0x00009bbc
 20c:	00000008 	andeq	r0, r0, r8
 210:	00000018 	andeq	r0, r0, r8, lsl r0
 214:	00000000 	andeq	r0, r0, r0
 218:	00009bc4 	andeq	r9, r0, r4, asr #23
 21c:	00000014 	andeq	r0, r0, r4, lsl r0
 220:	84080e41 	strhi	r0, [r8], #-3649	; 0xe41
 224:	48018502 	stmdami	r1, {r1, r8, sl, pc}
 228:	000ec4c5 	andeq	ip, lr, r5, asr #9
 22c:	00000018 	andeq	r0, r0, r8, lsl r0
 230:	00000000 	andeq	r0, r0, r0
 234:	00009bd8 	ldrdeq	r9, [r0], -r8
 238:	00000016 	andeq	r0, r0, r6, lsl r0
 23c:	84080e41 	strhi	r0, [r8], #-3649	; 0xe41
 240:	49018502 	stmdbmi	r1, {r1, r8, sl, pc}
 244:	000ec4c5 	andeq	ip, lr, r5, asr #9
 248:	00000028 	andeq	r0, r0, r8, lsr #32
 24c:	00000000 	andeq	r0, r0, r0
 250:	00009bf0 	strdeq	r9, [r0], -r0
 254:	000000f0 	strdeq	r0, [r0], -r0	; <UNPREDICTABLE>
 258:	84240e42 	strthi	r0, [r4], #-3650	; 0xe42
 25c:	86088509 	strhi	r8, [r8], -r9, lsl #10
 260:	88068707 	stmdahi	r6, {r0, r1, r2, r8, r9, sl, pc}
 264:	8a048905 	bhi	122680 <__bss_end__+0x11033c>
 268:	8e028b03 	vmlahi.f64	d8, d2, d3
 26c:	300e4401 	andcc	r4, lr, r1, lsl #8
 270:	240e7002 	strcs	r7, [lr], #-2
 274:	00000014 	andeq	r0, r0, r4, lsl r0
 278:	00000000 	andeq	r0, r0, r0
 27c:	00009ce0 	andeq	r9, r0, r0, ror #25
 280:	0000001a 	andeq	r0, r0, sl, lsl r0
 284:	84080e43 	strhi	r0, [r8], #-3651	; 0xe43
 288:	00018e02 	andeq	r8, r1, r2, lsl #28
 28c:	00000060 	andeq	r0, r0, r0, rrx
 290:	00000000 	andeq	r0, r0, r0
 294:	00008784 	andeq	r8, r0, r4, lsl #15
 298:	00000b82 	andeq	r0, r0, r2, lsl #23
 29c:	84240e42 	strthi	r0, [r4], #-3650	; 0xe42
 2a0:	86088509 	strhi	r8, [r8], -r9, lsl #10
 2a4:	88068707 	stmdahi	r6, {r0, r1, r2, r8, r9, sl, pc}
 2a8:	8a048905 	bhi	1226c4 <__bss_end__+0x110380>
 2ac:	8e028b03 	vmlahi.f64	d8, d2, d3
 2b0:	640e4401 	strvs	r4, [lr], #-1025	; 0x401
 2b4:	05195005 	ldreq	r5, [r9, #-5]
 2b8:	54051752 	strpl	r1, [r5], #-1874	; 0x752
 2bc:	13560515 	cmpne	r6, #88080384	; 0x5400000
 2c0:	05115805 	ldreq	r5, [r1, #-2053]	; 0x805
 2c4:	5c050f5a 	stcpl	15, cr0, [r5], {90}	; 0x5a
 2c8:	0b5e050d 	bleq	1781704 <__bss_end__+0x176f3c0>
 2cc:	4be40e44 	blmi	ff903be4 <__bss_end__+0xff8f18a0>
 2d0:	4c800e43 	stcmi	14, cr0, [r0], {67}	; 0x43
 2d4:	0a058a03 	beq	162ae8 <__bss_end__+0x1507a4>
 2d8:	0642640e 	strbeq	r6, [r2], -lr, lsl #8
 2dc:	065c065e 			; <UNDEFINED> instruction: 0x065c065e
 2e0:	0658065a 			; <UNDEFINED> instruction: 0x0658065a
 2e4:	06540656 			; <UNDEFINED> instruction: 0x06540656
 2e8:	0e500652 	mrceq	6, 2, r0, cr0, cr2, {2}
 2ec:	000b4224 	andeq	r4, fp, r4, lsr #4
 2f0:	0000000c 	andeq	r0, r0, ip
 2f4:	ffffffff 			; <UNDEFINED> instruction: 0xffffffff
 2f8:	7c010001 	stcvc	0, cr0, [r1], {1}
 2fc:	000d0c0e 	andeq	r0, sp, lr, lsl #24
 300:	0000000c 	andeq	r0, r0, ip
 304:	000002f0 	strdeq	r0, [r0], -r0	; <UNPREDICTABLE>
 308:	00009d01 	andeq	r9, r0, r1, lsl #26
 30c:	0000025c 	andeq	r0, r0, ip, asr r2
 310:	0000000c 	andeq	r0, r0, ip
 314:	ffffffff 			; <UNDEFINED> instruction: 0xffffffff
 318:	7c020001 	stcvc	0, cr0, [r2], {1}
 31c:	000d0c0e 	andeq	r0, sp, lr, lsl #24
 320:	00000020 	andeq	r0, r0, r0, lsr #32
 324:	00000310 	andeq	r0, r0, r0, lsl r3
 328:	00009f84 	andeq	r9, r0, r4, lsl #31
 32c:	00000040 	andeq	r0, r0, r0, asr #32
 330:	83200e42 	teqhi	r0, #1056	; 0x420
 334:	85078408 	strhi	r8, [r7, #-1032]	; 0x408
 338:	87058606 	strhi	r8, [r5, -r6, lsl #12]
 33c:	89038804 	stmdbhi	r3, {r2, fp, pc}
 340:	00018e02 	andeq	r8, r1, r2, lsl #28
 344:	0000000c 	andeq	r0, r0, ip
 348:	00000310 	andeq	r0, r0, r0, lsl r3
 34c:	00009fc4 	andeq	r9, r0, r4, asr #31
 350:	00000002 	andeq	r0, r0, r2

Disassembly of section .debug_str:

00000000 <.debug_str>:
   0:	666f5f5f 	uqsaxvs	r5, pc, pc	; <UNPREDICTABLE>
   4:	00745f66 	rsbseq	r5, r4, r6, ror #30
   8:	6c616373 	stclvs	3, cr6, [r1], #-460	; 0xfffffe34
   c:	635f0065 	cmpvs	pc, #101	; 0x65
  10:	6e696168 	powvsez	f6, f1, #0.0
  14:	616d6d00 	cmnvs	sp, r0, lsl #26
  18:	61645f70 	smcvs	17904	; 0x45f0
  1c:	77006174 	smlsdxvc	r0, r4, r1, r6
  20:	75656b61 	strbvc	r6, [r5, #-2913]!	; 0xb61
  24:	61775f70 	cmnvs	r7, r0, ror pc
  28:	6d726574 	cfldr64vs	mvdx6, [r2, #-464]!	; 0xfffffe30
  2c:	006b7261 	rsbeq	r7, fp, r1, ror #4
  30:	6f68735f 	svcvs	0x0068735f
  34:	75627472 	strbvc	r7, [r2, #-1138]!	; 0x472
  38:	78650066 	stmdavc	r5!, {r1, r2, r5, r6}^
  3c:	73756c63 	cmnvc	r5, #25344	; 0x6300
  40:	00657669 	rsbeq	r7, r5, r9, ror #12
  44:	5f636361 	svcpl	0x00636361
  48:	6d746e69 	ldclvs	14, cr6, [r4, #-420]!	; 0xfffffe5c
  4c:	61007861 	tstvs	r0, r1, ror #16
  50:	635f6363 	cmpvs	pc, #-1946157055	; 0x8c000001
  54:	656c6379 	strbvs	r6, [ip, #-889]!	; 0x379
  58:	6f630073 	svcvs	0x00630073
  5c:	69006d6d 	stmdbvs	r0, {r0, r2, r3, r5, r6, r8, sl, fp, sp, lr}
  60:	0074696e 	rsbseq	r6, r4, lr, ror #18
  64:	46524550 			; <UNDEFINED> instruction: 0x46524550
  68:	554f435f 	strbpl	r4, [pc, #-863]	; fffffd11 <__bss_end__+0xfffed9cd>
  6c:	485f544e 	ldmdami	pc, {r1, r2, r3, r6, sl, ip, lr}^	; <UNPREDICTABLE>
  70:	54535f57 	ldrbpl	r5, [r3], #-3927	; 0xf57
  74:	454c4c41 	strbmi	r4, [ip, #-3137]	; 0xc41
  78:	59435f44 	stmdbpl	r3, {r2, r6, r8, r9, sl, fp, ip, lr}^
  7c:	53454c43 	movtpl	r4, #23619	; 0x5c43
  80:	4341425f 	movtmi	r4, #4703	; 0x125f
  84:	444e454b 	strbmi	r4, [lr], #-1355	; 0x54b
  88:	4f495f00 	svcmi	0x00495f00
  8c:	6675625f 			; <UNDEFINED> instruction: 0x6675625f
  90:	7361625f 	cmnvc	r1, #-268435451	; 0xf0000005
  94:	65720065 	ldrbvs	r0, [r2, #-101]!	; 0x65
  98:	665f6461 	ldrbvs	r6, [pc], -r1, ror #8
  9c:	616d726f 	cmnvs	sp, pc, ror #4
  a0:	45500074 	ldrbmi	r0, [r0, #-116]	; 0x74
  a4:	435f4652 	cmpmi	pc, #85983232	; 0x5200000
  a8:	544e554f 	strbpl	r5, [lr], #-1359	; 0x54f
  ac:	5f57485f 	svcpl	0x0057485f
  b0:	48434143 	stmdami	r3, {r0, r1, r6, r8, lr}^
  b4:	494d5f45 	stmdbmi	sp, {r0, r2, r6, r8, r9, sl, fp, ip, lr}^
  b8:	53455353 	movtpl	r5, #21331	; 0x5353
  bc:	6e6f6c00 	cdpvs	12, 6, cr6, cr15, cr0, {0}
  c0:	6f6c2067 	svcvs	0x006c2067
  c4:	7520676e 	strvc	r6, [r0, #-1902]!	; 0x76e
  c8:	6769736e 	strbvs	r7, [r9, -lr, ror #6]!
  cc:	2064656e 	rsbcs	r6, r4, lr, ror #10
  d0:	00746e69 	rsbseq	r6, r4, r9, ror #28
  d4:	46524550 			; <UNDEFINED> instruction: 0x46524550
  d8:	554f435f 	strbpl	r4, [pc, #-863]	; fffffd81 <__bss_end__+0xfffeda3d>
  dc:	485f544e 	ldmdami	pc, {r1, r2, r3, r6, sl, ip, lr}^	; <UNPREDICTABLE>
  e0:	414d5f57 	cmpmi	sp, r7, asr pc
  e4:	45500058 	ldrbmi	r0, [r0, #-88]	; 0x58
  e8:	435f4652 	cmpmi	pc, #85983232	; 0x5200000
  ec:	544e554f 	strbpl	r5, [lr], #-1359	; 0x54f
  f0:	5f57485f 	svcpl	0x0057485f
  f4:	4e415242 	cdpmi	2, 4, cr5, cr1, cr2, {2}
  f8:	495f4843 	ldmdbmi	pc, {r0, r1, r6, fp, lr}^	; <UNPREDICTABLE>
  fc:	5254534e 	subspl	r5, r4, #939524097	; 0x38000001
 100:	49544355 	ldmdbmi	r4, {r0, r2, r4, r6, r8, r9, lr}^
 104:	00534e4f 	subseq	r4, r3, pc, asr #28
 108:	706d6173 	rsbvc	r6, sp, r3, ror r1
 10c:	745f656c 	ldrbvc	r6, [pc], #-1388	; 114 <shift+0x114>
 110:	6f687300 	svcvs	0x00687300
 114:	69207472 	stmdbvs	r0!, {r1, r4, r5, r6, sl, ip, sp, lr}
 118:	6d00746e 	cfstrsvs	mvf7, [r0, #-440]	; 0xfffffe48
 11c:	61696465 	cmnvs	r9, r5, ror #8
 120:	6f6c006e 	svcvs	0x006c006e
 124:	6c20676e 	stcvs	7, cr6, [r0], #-440	; 0xfffffe48
 128:	20676e6f 	rsbcs	r6, r7, pc, ror #28
 12c:	00746e69 	rsbseq	r6, r4, r9, ror #28
 130:	52505f5f 	subspl	r5, r0, #380	; 0x17c
 134:	59545445 	ldmdbpl	r4, {r0, r2, r6, sl, ip, lr}^
 138:	4e55465f 	mrcmi	6, 2, r4, cr5, cr15, {2}
 13c:	4f495443 	svcmi	0x00495443
 140:	005f5f4e 	subseq	r5, pc, lr, asr #30
 144:	6c616373 	stclvs	3, cr6, [r1], #-460	; 0xfffffe34
 148:	67697365 	strbvs	r7, [r9, -r5, ror #6]!
 14c:	69665f00 	stmdbvs	r6!, {r8, r9, sl, fp, ip, lr}^
 150:	6f6e656c 	svcvs	0x006e656c
 154:	6b617700 	blvs	185dd5c <__bss_end__+0x184ba18>
 158:	5f707565 	svcpl	0x00707565
 15c:	6e657665 	cdpvs	6, 6, cr7, cr5, cr5, {3}
 160:	5f007374 	svcpl	0x00007374
 164:	725f4f49 	subsvc	r4, pc, #292	; 0x124
 168:	5f646165 	svcpl	0x00646165
 16c:	00646e65 	rsbeq	r6, r4, r5, ror #28
 170:	5f726f63 	svcpl	0x00726f63
 174:	65736162 	ldrbvs	r6, [r3, #-354]!	; 0x162
 178:	554e4700 	strbpl	r4, [lr, #-1792]	; 0x700
 17c:	34204320 	strtcc	r4, [r0], #-800	; 0x320
 180:	332e382e 	teqcc	lr, #3014656	; 0x2e0000
 184:	31303220 	teqcc	r0, r0, lsr #4
 188:	30343034 	eorscc	r3, r4, r4, lsr r0
 18c:	70282031 	eorvc	r2, r8, r1, lsr r0
 190:	65726572 	ldrbvs	r6, [r2, #-1394]!	; 0x572
 194:	7361656c 	cmnvc	r1, #108, 10	; 0x1b000000
 198:	2d202965 	stccs	9, cr2, [r0, #-404]!	; 0xfffffe6c
 19c:	6372616d 	cmnvs	r2, #1073741851	; 0x4000001b
 1a0:	72613d68 	rsbvc	r3, r1, #104, 26	; 0x1a00
 1a4:	2d37766d 	ldccs	6, cr7, [r7, #-436]!	; 0xfffffe4c
 1a8:	6d2d2061 	stcvs	0, cr2, [sp, #-388]!	; 0xfffffe7c
 1ac:	656e7574 	strbvs	r7, [lr, #-1396]!	; 0x574
 1b0:	726f633d 	rsbvc	r6, pc, #-201326592	; 0xf4000000
 1b4:	2d786574 	cfldr64cs	mvdx6, [r8, #-464]!	; 0xfffffe30
 1b8:	2d203961 	stccs	9, cr3, [r0, #-388]!	; 0xfffffe7c
 1bc:	6f6c666d 	svcvs	0x006c666d
 1c0:	612d7461 	teqvs	sp, r1, ror #8
 1c4:	683d6962 	ldmdavs	sp!, {r1, r5, r6, r8, fp, sp, lr}
 1c8:	20647261 	rsbcs	r7, r4, r1, ror #4
 1cc:	70666d2d 	rsbvc	r6, r6, sp, lsr #26
 1d0:	66763d75 			; <UNDEFINED> instruction: 0x66763d75
 1d4:	2d337670 	ldccs	6, cr7, [r3, #-448]!	; 0xfffffe40
 1d8:	20363164 	eorscs	r3, r6, r4, ror #2
 1dc:	68746d2d 	ldmdavs	r4!, {r0, r2, r3, r5, r8, sl, fp, sp, lr}^
 1e0:	20626d75 	rsbcs	r6, r2, r5, ror sp
 1e4:	6c746d2d 	ldclvs	13, cr6, [r4], #-180	; 0xffffff4c
 1e8:	69642d73 	stmdbvs	r4!, {r0, r1, r4, r5, r6, r8, sl, fp, sp}^
 1ec:	63656c61 	cmnvs	r5, #24832	; 0x6100
 1f0:	6e673d74 	mcrvs	13, 3, r3, cr7, cr4, {3}
 1f4:	672d2075 			; <UNDEFINED> instruction: 0x672d2075
 1f8:	20672d20 	rsbcs	r2, r7, r0, lsr #26
 1fc:	00334f2d 	eorseq	r4, r3, sp, lsr #30
 200:	6c637865 	stclvs	8, cr7, [r3], #-404	; 0xfffffe6c
 204:	5f656475 	svcpl	0x00656475
 208:	72657375 	rsbvc	r7, r5, #-738197503	; 0xd4000001
 20c:	6e696600 	cdpvs	6, 6, cr6, cr9, cr0, {0}
 210:	78616d64 	stmdavc	r1!, {r2, r5, r6, r8, sl, fp, sp, lr}^
 214:	72726500 	rsbsvc	r6, r2, #0, 10
 218:	656c726f 	strbvs	r7, [ip, #-623]!	; 0x26f
 21c:	5f6c6576 	svcpl	0x006c6576
 220:	00636361 	rsbeq	r6, r3, r1, ror #6
 224:	616c665f 	cmnvs	ip, pc, asr r6
 228:	50007367 	andpl	r7, r0, r7, ror #6
 22c:	5f465245 	svcpl	0x00465245
 230:	45505954 	ldrbmi	r5, [r0, #-2388]	; 0x954
 234:	5f57485f 	svcpl	0x0057485f
 238:	48434143 	stmdami	r3, {r0, r1, r6, r8, lr}^
 23c:	5f5f0045 	svcpl	0x005f0045
 240:	7a697373 	bvc	1a5d014 <__bss_end__+0x1a4acd0>
 244:	00745f65 	rsbseq	r5, r4, r5, ror #30
 248:	75625f5f 	strbvc	r5, [r2, #-3935]!	; 0xf5f
 24c:	69746c69 	ldmdbvs	r4!, {r0, r3, r5, r6, sl, fp, sp, lr}^
 250:	75705f6e 	ldrbvc	r5, [r0, #-3950]!	; 0xf6e
 254:	5f007374 	svcpl	0x00007374
 258:	5f727563 	svcpl	0x00727563
 25c:	756c6f63 	strbvc	r6, [ip, #-3939]!	; 0xf63
 260:	6d006e6d 	stcvs	14, cr6, [r0, #-436]	; 0xfffffe4c
 264:	0070616d 	rsbseq	r6, r0, sp, ror #2
 268:	75715f5f 	ldrbvc	r5, [r1, #-3935]!	; 0xf5f
 26c:	745f6461 	ldrbvc	r6, [pc], #-1121	; 274 <shift+0x274>
 270:	756f6400 	strbvc	r6, [pc, #-1024]!	; fffffe78 <__bss_end__+0xfffedb34>
 274:	00656c62 	rsbeq	r6, r5, r2, ror #24
 278:	706d6574 	rsbvc	r6, sp, r4, ror r5
 27c:	6574616c 	ldrbvs	r6, [r4, #-364]!	; 0x16c
 280:	706d6173 	rsbvc	r6, sp, r3, ror r1
 284:	0073656c 	rsbseq	r6, r3, ip, ror #10
 288:	46524550 			; <UNDEFINED> instruction: 0x46524550
 28c:	5059545f 	subspl	r5, r9, pc, asr r4
 290:	52545f45 	subspl	r5, r4, #276	; 0x114
 294:	50454341 	subpl	r4, r5, r1, asr #6
 298:	544e494f 	strbpl	r4, [lr], #-2383	; 0x94f
 29c:	6e6f6300 	cdpvs	3, 6, cr6, cr15, cr0, {0}
 2a0:	31676966 	cmncc	r7, r6, ror #18
 2a4:	6e6f6300 	cdpvs	3, 6, cr6, cr15, cr0, {0}
 2a8:	32676966 	rsbcc	r6, r7, #1671168	; 0x198000
 2ac:	6f737100 	svcvs	0x00737100
 2b0:	50007472 	andpl	r7, r0, r2, ror r4
 2b4:	5f465245 	svcpl	0x00465245
 2b8:	4e554f43 	cdpmi	15, 5, cr4, cr5, cr3, {2}
 2bc:	57485f54 	smlsldpl	r5, r8, r4, pc	; <UNPREDICTABLE>
 2c0:	534e495f 	movtpl	r4, #59743	; 0xe95f
 2c4:	43555254 	cmpmi	r5, #84, 4	; 0x40000005
 2c8:	4e4f4954 	mcrmi	9, 2, r4, cr15, cr4, {2}
 2cc:	69760053 	ldmdbvs	r6!, {r0, r1, r4, r6}^
 2d0:	61757472 	cmnvs	r5, r2, ror r4
 2d4:	61625f6c 	cmnvs	r2, ip, ror #30
 2d8:	5f006573 	svcpl	0x00006573
 2dc:	6461705f 	strbtvs	r7, [r1], #-95	; 0x5f
 2e0:	45500035 	ldrbmi	r0, [r0, #-53]	; 0x35
 2e4:	545f4652 	ldrbpl	r4, [pc], #-1618	; 2ec <shift+0x2ec>
 2e8:	5f455059 	svcpl	0x00455059
 2ec:	0058414d 	subseq	r4, r8, sp, asr #2
 2f0:	706d6574 	rsbvc	r6, sp, r4, ror r5
 2f4:	73656400 	cmnvc	r5, #0, 8
 2f8:	616e6974 	smcvs	59028	; 0xe694
 2fc:	6e6f6974 	mcrvs	9, 3, r6, cr15, cr4, {3}
 300:	4f495f00 	svcmi	0x00495f00
 304:	72616d5f 	rsbvc	r6, r1, #6080	; 0x17c0
 308:	0072656b 	rsbseq	r6, r2, fp, ror #10
 30c:	69647473 	stmdbvs	r4!, {r0, r1, r4, r5, r6, sl, ip, sp, lr}^
 310:	5f5f006e 	svcpl	0x005f006e
 314:	65736572 	ldrbvs	r6, [r3, #-1394]!	; 0x572
 318:	64657672 	strbtvs	r7, [r5], #-1650	; 0x672
 31c:	6200315f 	andvs	r3, r0, #-1073741801	; 0xc0000017
 320:	656c5f70 	strbvs	r5, [ip, #-3952]!	; 0xf70
 324:	7066006e 	rsbvc	r0, r6, lr, rrx
 328:	746e6972 	strbtvc	r6, [lr], #-2418	; 0x972
 32c:	69640066 	stmdbvs	r4!, {r1, r2, r5, r6}^
 330:	6c626173 	stfvse	f6, [r2], #-460	; 0xfffffe34
 334:	69006465 	stmdbvs	r0, {r0, r2, r5, r6, sl, sp, lr}
 338:	7265686e 	rsbvc	r6, r5, #7208960	; 0x6e0000
 33c:	73007469 	movwvc	r7, #1129	; 0x469
 340:	6c706d61 	ldclvs	13, cr6, [r0], #-388	; 0xfffffe7c
 344:	79745f65 	ldmdbvc	r4!, {r0, r2, r5, r6, r8, r9, sl, fp, ip, lr}^
 348:	72006570 	andvc	r6, r0, #112, 10	; 0x1c000000
 34c:	635f6665 	cmpvs	pc, #105906176	; 0x6500000
 350:	656c6379 	strbvs	r6, [ip, #-889]!	; 0x379
 354:	5f5f0073 	svcpl	0x005f0073
 358:	00323375 	eorseq	r3, r2, r5, ror r3
 35c:	5f4f495f 	svcpl	0x004f495f
 360:	74697277 	strbtvc	r7, [r9], #-631	; 0x277
 364:	74705f65 	ldrbtvc	r5, [r0], #-3941	; 0xf65
 368:	756d0072 	strbvc	r0, [sp, #-114]!	; 0x72
 36c:	70616d6e 	rsbvc	r6, r1, lr, ror #26
 370:	6d616e00 	stclvs	14, cr6, [r1, #-0]
 374:	45500065 	ldrbmi	r0, [r0, #-101]	; 0x65
 378:	545f4652 	ldrbpl	r4, [pc], #-1618	; 380 <shift+0x380>
 37c:	5f455059 	svcpl	0x00455059
 380:	44524148 	ldrbmi	r4, [r2], #-328	; 0x148
 384:	45524157 	ldrbmi	r4, [r2, #-343]	; 0x157
 388:	63786500 	cmnvs	r8, #0, 10
 38c:	6564756c 	strbvs	r7, [r4, #-1388]!	; 0x56c
 390:	0076685f 	rsbseq	r6, r6, pc, asr r8
 394:	7562735f 	strbvc	r7, [r2, #-863]!	; 0x35f
 398:	69730066 	ldmdbvs	r3!, {r1, r2, r5, r6}^
 39c:	7300657a 	movwvc	r6, #1402	; 0x57a
 3a0:	74726f68 	ldrbtvc	r6, [r2], #-3944	; 0xf68
 3a4:	736e7520 	cmnvc	lr, #32, 10	; 0x8000000
 3a8:	656e6769 	strbvs	r6, [lr, #-1897]!	; 0x769
 3ac:	6e692064 	cdpvs	0, 6, cr2, cr9, cr4, {3}
 3b0:	45500074 	ldrbmi	r0, [r0, #-116]	; 0x74
 3b4:	545f4652 	ldrbpl	r4, [pc], #-1618	; 3bc <shift+0x3bc>
 3b8:	5f455059 	svcpl	0x00455059
 3bc:	00574152 	subseq	r4, r7, r2, asr r1
 3c0:	66726570 			; <UNDEFINED> instruction: 0x66726570
 3c4:	7079745f 	rsbsvc	r7, r9, pc, asr r4
 3c8:	64695f65 	strbtvs	r5, [r9], #-3941	; 0xf65
 3cc:	5c3a4300 	ldcpl	3, cr4, [sl], #-0
 3d0:	77677963 	strbvc	r7, [r7, -r3, ror #18]!
 3d4:	34366e69 	ldrtcc	r6, [r6], #-3689	; 0xe69
 3d8:	6d6f685c 	stclvs	8, cr6, [pc, #-368]!	; 270 <shift+0x270>
 3dc:	65645c65 	strbvs	r5, [r4, #-3173]!	; 0xc65
 3e0:	5c6c6976 	stclpl	9, cr6, [ip], #-472	; 0xfffffe28
 3e4:	74736574 	ldrbtvc	r6, [r3], #-1396	; 0x574
 3e8:	6168635f 	cmnvs	r8, pc, asr r3
 3ec:	68635c6c 	stmdavs	r3!, {r2, r3, r5, r6, sl, fp, ip, lr}^
 3f0:	656c6c61 	strbvs	r6, [ip, #-3169]!	; 0xc61
 3f4:	2d65676e 	stclcs	7, cr6, [r5, #-440]!	; 0xfffffe48
 3f8:	34656365 	strbtcc	r6, [r5], #-869	; 0x365
 3fc:	2d303335 	ldccs	3, cr3, [r0, #-212]!	; 0xffffff2c
 400:	2d373166 	ldfcss	f3, [r7, #-408]!	; 0xfffffe68
 404:	736b6131 	cmnvc	fp, #1073741836	; 0x4000000c
 408:	31746168 	cmncc	r4, r8, ror #2
 40c:	7361625c 	cmnvc	r1, #92, 4	; 0xc0000005
 410:	6e696c65 	cdpvs	12, 6, cr6, cr9, cr5, {3}
 414:	6f735c65 	svcvs	0x00735c65
 418:	61777466 	cmnvs	r7, r6, ror #8
 41c:	5f006572 	svcpl	0x00006572
 420:	735f4f49 	cmpvc	pc, #292	; 0x124
 424:	5f657661 	svcpl	0x00657661
 428:	65736162 	ldrbvs	r6, [r3, #-354]!	; 0x162
 42c:	52415400 	subpl	r5, r1, #0, 8
 430:	00544547 	subseq	r4, r4, r7, asr #10
 434:	65646e69 	strbvs	r6, [r4, #-3689]!	; 0xe69
 438:	00745f78 	rsbseq	r5, r4, r8, ror pc
 43c:	6f6f6c66 	svcvs	0x006f6c66
 440:	6c5f0072 	mrrcvs	0, 7, r0, pc, cr2	; <UNPREDICTABLE>
 444:	006b636f 	rsbeq	r6, fp, pc, ror #6
 448:	745f7062 	ldrbvc	r7, [pc], #-98	; 450 <shift+0x450>
 44c:	00657079 	rsbeq	r7, r5, r9, ror r0
 450:	616c665f 	cmnvs	ip, pc, asr r6
 454:	00327367 	eorseq	r7, r2, r7, ror #6
 458:	646f6d5f 	strbtvs	r6, [pc], #-3423	; 460 <shift+0x460>
 45c:	45500065 	ldrbmi	r0, [r0, #-101]	; 0x65
 460:	435f4652 	cmpmi	pc, #85983232	; 0x5200000
 464:	544e554f 	strbpl	r5, [lr], #-1359	; 0x54f
 468:	5f57485f 	svcpl	0x0057485f
 46c:	5f555043 	svcpl	0x00555043
 470:	4c435943 	mcrrmi	9, 4, r5, r3, cr3
 474:	73005345 	movwvc	r5, #837	; 0x345
 478:	756f6474 	strbvc	r6, [pc, #-1140]!	; c <shift+0xc>
 47c:	6d640074 	stclvs	0, cr0, [r4, #-464]!	; 0xfffffe30
 480:	73616261 	cmnvc	r1, #268435462	; 0x10000006
 484:	6f730065 	svcvs	0x00730065
 488:	65637275 	strbvs	r7, [r3, #-629]!	; 0x275
 48c:	7a697300 	bvc	1a5d094 <__bss_end__+0x1a4ad50>
 490:	70797465 	rsbsvc	r7, r9, r5, ror #8
 494:	78650065 	stmdavc	r5!, {r0, r2, r5, r6}^
 498:	64756c63 	ldrbtvs	r6, [r5], #-3171	; 0xc63
 49c:	656b5f65 	strbvs	r5, [fp, #-3941]!	; 0xf65
 4a0:	6c656e72 	stclvs	14, cr6, [r5], #-456	; 0xfffffe38
 4a4:	6d6f6300 	stclvs	3, cr6, [pc, #-0]	; 4ac <shift+0x4ac>
 4a8:	65726170 	ldrbvs	r6, [r2, #-368]!	; 0x170
 4ac:	736e755f 	cmnvc	lr, #398458880	; 0x17c00000
 4b0:	656e6769 	strbvs	r6, [lr, #-1897]!	; 0x769
 4b4:	495f0064 	ldmdbmi	pc, {r2, r5, r6}^	; <UNPREDICTABLE>
 4b8:	65725f4f 	ldrbvs	r5, [r2, #-3919]!	; 0xf4f
 4bc:	705f6461 	subsvc	r6, pc, r1, ror #8
 4c0:	50007274 	andpl	r7, r0, r4, ror r2
 4c4:	5f465245 	svcpl	0x00465245
 4c8:	45505954 	ldrbmi	r5, [r0, #-2388]	; 0x954
 4cc:	464f535f 			; <UNDEFINED> instruction: 0x464f535f
 4d0:	52415754 	subpl	r5, r1, #84, 14	; 0x1500000
 4d4:	61730045 	cmnvs	r3, r5, asr #32
 4d8:	656c706d 	strbvs	r7, [ip, #-109]!	; 0x6d
 4dc:	7265705f 	rsbvc	r7, r5, #95	; 0x5f
 4e0:	00646f69 	rsbeq	r6, r4, r9, ror #30
 4e4:	5f4f495f 	svcpl	0x004f495f
 4e8:	6b636f6c 	blvs	18dc2a0 <__bss_end__+0x18c9f5c>
 4ec:	7300745f 	movwvc	r7, #1119	; 0x45f
 4f0:	6c706d61 	ldclvs	13, cr6, [r0], #-388	; 0xfffffe7c
 4f4:	76617365 	strbtvc	r7, [r1], -r5, ror #6
 4f8:	495f0065 	ldmdbmi	pc, {r0, r2, r5, r6}^	; <UNPREDICTABLE>
 4fc:	49465f4f 	stmdbmi	r6, {r0, r1, r2, r3, r6, r8, r9, sl, fp, ip, lr}^
 500:	6800454c 	stmdavs	r0, {r2, r3, r6, r8, sl, lr}
 504:	75625f77 	strbvc	r5, [r2, #-3959]!	; 0xf77
 508:	6f636b6c 	svcvs	0x00636b6c
 50c:	6c657272 	sfmvs	f7, 2, [r5], #-456	; 0xfffffe38
 510:	00657461 	rsbeq	r7, r5, r1, ror #8
 514:	73696874 	cmnvc	r9, #116, 16	; 0x740000
 518:	6c660074 	stclvs	0, cr0, [r6], #-464	; 0xfffffe30
 51c:	0074616f 	rsbseq	r6, r4, pc, ror #2
 520:	6e6e6567 	cdpvs	5, 6, cr6, cr14, cr7, {3}
 524:	6573696f 	ldrbvs	r6, [r3, #-2415]!	; 0x96f
 528:	706f6600 	rsbvc	r6, pc, r0, lsl #12
 52c:	5f006e65 	svcpl	0x00006e65
 530:	00736f70 	rsbseq	r6, r3, r0, ror pc
 534:	7479626e 	ldrbtvc	r6, [r9], #-622	; 0x26e
 538:	50007365 	andpl	r7, r0, r5, ror #6
 53c:	5f465245 	svcpl	0x00465245
 540:	4e554f43 	cdpmi	15, 5, cr4, cr5, cr3, {2}
 544:	57485f54 	smlsldpl	r5, r8, r4, pc	; <UNPREDICTABLE>
 548:	4152425f 	cmpmi	r2, pc, asr r2
 54c:	5f48434e 	svcpl	0x0048434e
 550:	5353494d 	cmppl	r3, #1261568	; 0x134000
 554:	5f005345 	svcpl	0x00005345
 558:	6b72616d 	blvs	1c98b14 <__bss_end__+0x1c867d0>
 55c:	00737265 	rsbseq	r7, r3, r5, ror #4
 560:	73615f5f 	cmnvc	r1, #380	; 0x17c
 564:	74726573 	ldrbtvc	r6, [r2], #-1395	; 0x573
 568:	6961665f 	stmdbvs	r1!, {r0, r1, r2, r3, r4, r6, r9, sl, sp, lr}^
 56c:	6173006c 	cmnvs	r3, ip, rrx
 570:	656c706d 	strbvs	r7, [ip, #-109]!	; 0x6d
 574:	5f64695f 	svcpl	0x0064695f
 578:	006c6c61 	rsbeq	r6, ip, r1, ror #24
 57c:	63737973 	cmnvs	r3, #1884160	; 0x1cc000
 580:	006c6c61 	rsbeq	r6, ip, r1, ror #24
 584:	72616d64 	rsbvc	r6, r1, #100, 26	; 0x1900
 588:	74657365 	strbtvc	r7, [r5], #-869	; 0x365
 58c:	5f706200 	svcpl	0x00706200
 590:	72646461 	rsbvc	r6, r4, #1627389952	; 0x61000000
 594:	616d6400 	cmnvs	sp, r0, lsl #8
 598:	79706f63 	ldmdbvc	r0!, {r0, r1, r5, r6, r8, r9, sl, fp, sp, lr}^
 59c:	736e7500 	cmnvc	lr, #0, 10
 5a0:	656e6769 	strbvs	r6, [lr, #-1897]!	; 0x769
 5a4:	68632064 	stmdavs	r3!, {r2, r5, r6, sp}^
 5a8:	50007261 	andpl	r7, r0, r1, ror #4
 5ac:	5f465245 	svcpl	0x00465245
 5b0:	4e554f43 	cdpmi	15, 5, cr4, cr5, cr3, {2}
 5b4:	57485f54 	smlsldpl	r5, r8, r4, pc	; <UNPREDICTABLE>
 5b8:	4341435f 	movtmi	r4, #4959	; 0x135f
 5bc:	525f4548 	subspl	r4, pc, #72, 10	; 0x12000000
 5c0:	52454645 	subpl	r4, r5, #72351744	; 0x4500000
 5c4:	45434e45 	strbmi	r4, [r3, #-3653]	; 0xe45
 5c8:	65700053 	ldrbvs	r0, [r0, #-83]!	; 0x53
 5cc:	655f6672 	ldrbvs	r6, [pc, #-1650]	; ffffff62 <__bss_end__+0xfffedc1e>
 5d0:	746e6576 	strbtvc	r6, [lr], #-1398	; 0x576
 5d4:	7474615f 	ldrbtvc	r6, [r4], #-351	; 0x15f
 5d8:	495f0072 	ldmdbmi	pc, {r1, r4, r5, r6}^	; <UNPREDICTABLE>
 5dc:	75625f4f 	strbvc	r5, [r2, #-3919]!	; 0xf4f
 5e0:	6e655f66 	cdpvs	15, 6, cr5, cr5, cr6, {3}
 5e4:	6e690064 	cdpvs	0, 6, cr0, cr9, cr4, {3}
 5e8:	76617774 			; <UNDEFINED> instruction: 0x76617774
 5ec:	61770065 	cmnvs	r7, r5, rrx
 5f0:	6f666576 	svcvs	0x00666576
 5f4:	00736d72 	rsbseq	r6, r3, r2, ror sp
 5f8:	6174765f 	cmnvs	r4, pc, asr r6
 5fc:	5f656c62 	svcpl	0x00656c62
 600:	7366666f 	cmnvc	r6, #116391936	; 0x6f00000
 604:	74007465 	strvc	r7, [r0], #-1125	; 0x465
 608:	6c706d65 	ldclvs	13, cr6, [r0], #-404	; 0xfffffe6c
 60c:	00657461 	rsbeq	r7, r5, r1, ror #8
 610:	706d6173 	rsbvc	r6, sp, r3, ror r1
 614:	665f656c 	ldrbvs	r6, [pc], -ip, ror #10
 618:	00716572 	rsbseq	r6, r1, r2, ror r5
 61c:	72726f63 	rsbsvc	r6, r2, #396	; 0x18c
 620:	74616c65 	strbtvc	r6, [r1], #-3173	; 0xc65
 624:	00632e65 	rsbeq	r2, r3, r5, ror #28
 628:	61746f74 	cmnvs	r4, r4, ror pc
 62c:	7272656c 	rsbsvc	r6, r2, #108, 10	; 0x1b000000
 630:	5f00726f 	svcpl	0x0000726f
 634:	3436755f 	ldrtcc	r7, [r6], #-1375	; 0x55f
 638:	6d656d00 	stclvs	13, cr6, [r5, #-0]
 63c:	63006466 	movwvs	r6, #1126	; 0x466
 640:	69666e6f 	stmdbvs	r6!, {r0, r1, r2, r3, r5, r6, r9, sl, fp, sp, lr}^
 644:	45500067 	ldrbmi	r0, [r0, #-103]	; 0x67
 648:	435f4652 	cmpmi	pc, #85983232	; 0x5200000
 64c:	544e554f 	strbpl	r5, [lr], #-1359	; 0x54f
 650:	5f57485f 	svcpl	0x0057485f
 654:	4c415453 	cfstrdmi	mvd5, [r1], {83}	; 0x53
 658:	5f44454c 	svcpl	0x0044454c
 65c:	4c435943 	mcrrmi	9, 4, r5, r3, cr3
 660:	465f5345 	ldrbmi	r5, [pc], -r5, asr #6
 664:	544e4f52 	strbpl	r4, [lr], #-3922	; 0xf52
 668:	00444e45 	subeq	r4, r4, r5, asr #28
 66c:	63657270 	cmnvs	r5, #112, 4
 670:	6f697369 	svcvs	0x00697369
 674:	6570006e 	ldrbvs	r0, [r0, #-110]!	; 0x6e
 678:	685f6672 	ldmdavs	pc, {r1, r4, r5, r6, r9, sl, sp, lr}^	; <UNPREDICTABLE>
 67c:	64695f77 	strbtvs	r5, [r9], #-3959	; 0xf77
 680:	63786500 	cmnvs	r8, #0, 10
 684:	6564756c 	strbvs	r7, [r4, #-1388]!	; 0x56c
 688:	6c64695f 	stclvs	9, cr6, [r4], #-380	; 0xfffffe84
 68c:	63660065 	cmnvs	r6, #101	; 0x65
 690:	65736f6c 	ldrbvs	r6, [r3, #-3948]!	; 0xf6c
 694:	6e697000 	cdpvs	0, 6, cr7, cr9, cr0, {0}
 698:	0064656e 	rsbeq	r6, r4, lr, ror #10
 69c:	78656e5f 	stmdavc	r5!, {r0, r1, r2, r3, r4, r6, r9, sl, fp, sp, lr}^
 6a0:	6d640074 	stclvs	0, cr0, [r4, #-464]!	; 0xfffffe30
 6a4:	706f6361 	rsbvc	r6, pc, r1, ror #6
 6a8:	6e6f6379 	mcrvs	3, 3, r6, cr15, cr9, {3}
 6ac:	5f007473 	svcpl	0x00007473
 6b0:	66666f5f 	uqsaxvs	r6, r6, pc	; <UNPREDICTABLE>
 6b4:	745f3436 	ldrbvc	r3, [pc], #-1078	; 6bc <shift+0x6bc>
 6b8:	73617400 	cmnvc	r1, #0, 8
 6bc:	495f006b 	ldmdbmi	pc, {r0, r1, r3, r5, r6}^	; <UNPREDICTABLE>
 6c0:	65725f4f 	ldrbvs	r5, [r2, #-3919]!	; 0xf4f
 6c4:	625f6461 	subsvs	r6, pc, #1627389952	; 0x61000000
 6c8:	00657361 	rsbeq	r7, r5, r1, ror #6
 6cc:	636d656d 	cmnvs	sp, #457179136	; 0x1b400000
 6d0:	5f007970 	svcpl	0x00007970
 6d4:	735f4f49 	cmpvc	pc, #292	; 0x124
 6d8:	5f657661 	svcpl	0x00657661
 6dc:	00646e65 	rsbeq	r6, r4, r5, ror #28
 6e0:	6e617273 	mcrvs	2, 3, r7, cr1, cr3, {3}
 6e4:	6d640064 	stclvs	0, cr0, [r4, #-400]!	; 0xfffffe70
 6e8:	6d6f6361 	stclvs	3, cr6, [pc, #-388]!	; 56c <shift+0x56c>
 6ec:	74656c70 	strbtvc	r6, [r5], #-3184	; 0xc70
 6f0:	5f5f0065 	svcpl	0x005f0065
 6f4:	31646170 	smccc	17936	; 0x4610
 6f8:	705f5f00 	subsvc	r5, pc, r0, lsl #30
 6fc:	00326461 	eorseq	r6, r2, r1, ror #8
 700:	61705f5f 	cmnvs	r0, pc, asr pc
 704:	5f003364 	svcpl	0x00003364
 708:	6461705f 	strbtvs	r7, [r1], #-95	; 0x5f
 70c:	75620034 	strbvc	r0, [r2, #-52]!	; 0x34
 710:	73646c69 	cmnvc	r4, #26880	; 0x6900
 714:	616e6769 	cmnvs	lr, r9, ror #14
 718:	495f006c 	ldmdbmi	pc, {r2, r3, r5, r6}^	; <UNPREDICTABLE>
 71c:	72775f4f 	rsbsvc	r5, r7, #316	; 0x13c
 720:	5f657469 	svcpl	0x00657469
 724:	00646e65 	rsbeq	r6, r4, r5, ror #28
 728:	63657270 	cmnvs	r5, #112, 4
 72c:	5f657369 	svcpl	0x00657369
 730:	5f007069 	svcpl	0x00007069
 734:	73756e75 	cmnvc	r5, #1872	; 0x750
 738:	00326465 	eorseq	r6, r2, r5, ror #8
 73c:	46524550 			; <UNDEFINED> instruction: 0x46524550
 740:	5059545f 	subspl	r5, r9, pc, asr r4
 744:	52425f45 	subpl	r5, r2, #276	; 0x114
 748:	504b4145 	subpl	r4, fp, r5, asr #2
 74c:	544e494f 	strbpl	r4, [lr], #-2383	; 0x94f
 750:	72726500 	rsbsvc	r6, r2, #0, 10
 754:	656c726f 	strbvs	r7, [ip, #-623]!	; 0x26f
 758:	006c6576 	rsbeq	r6, ip, r6, ror r5
 75c:	67697369 	strbvs	r7, [r9, -r9, ror #6]!
 760:	66657200 	strbtvs	r7, [r5], -r0, lsl #4
 764:	746e695f 	strbtvc	r6, [lr], #-2399	; 0x95f
 768:	0078616d 	rsbseq	r6, r8, sp, ror #2
 76c:	5f4f495f 	svcpl	0x004f495f
 770:	6b636162 	blvs	18d8d00 <__bss_end__+0x18c69bc>
 774:	625f7075 	subsvs	r7, pc, #117	; 0x75
 778:	00657361 	rsbeq	r7, r5, r1, ror #6
 77c:	6978616d 	ldmdbvs	r8!, {r0, r2, r3, r5, r6, r8, sp, lr}^
 780:	7865646e 	stmdavc	r5!, {r1, r2, r3, r5, r6, sl, sp, lr}^
 784:	52455000 	subpl	r5, r5, #0
 788:	4f435f46 	svcmi	0x00435f46
 78c:	5f544e55 	svcpl	0x00544e55
 790:	425f5748 	subsmi	r5, pc, #72, 14	; 0x1200000
 794:	435f5355 	cmpmi	pc, #1409286145	; 0x54000001
 798:	454c4359 	strbmi	r4, [ip, #-857]	; 0x359
 79c:	75620053 	strbvc	r0, [r2, #-83]!	; 0x53
 7a0:	65006b6c 	strvs	r6, [r0, #-2924]	; 0xb6c
 7a4:	726f7272 	rsbvc	r7, pc, #536870919	; 0x20000007
 7a8:	6576656c 	ldrbvs	r6, [r6, #-1388]!	; 0x56c
 7ac:	65725f6c 	ldrbvs	r5, [r2, #-3948]!	; 0xf6c
 7b0:	65720066 	ldrbvs	r0, [r2, #-102]!	; 0x66
 7b4:	5f006461 	svcpl	0x00006461
 7b8:	6d6f635f 	stclvs	3, cr6, [pc, #-380]!	; 644 <shift+0x644>
 7bc:	5f726170 	svcpl	0x00726170
 7c0:	745f6e66 	ldrbvc	r6, [pc], #-3686	; 7c8 <shift+0x7c8>
 7c4:	6e656700 	cdpvs	7, 6, cr6, cr5, cr0, {0}
 7c8:	006e6973 	rsbeq	r6, lr, r3, ror r9
 7cc:	706d6173 	rsbvc	r6, sp, r3, ror r1
 7d0:	685f656c 	ldmdavs	pc, {r2, r3, r5, r6, r8, sl, sp, lr}^	; <UNPREDICTABLE>
 7d4:	00727470 	rsbseq	r7, r2, r0, ror r4
 7d8:	696e6966 	stmdbvs	lr!, {r1, r2, r5, r6, r8, fp, sp, lr}^
 7dc:	75706300 	ldrbvc	r6, [r0, #-768]!	; 0x300
 7e0:	6c637963 	stclvs	9, cr7, [r3], #-396	; 0xfffffe74
 7e4:	5f007365 	svcpl	0x00007365
 7e8:	5f646c6f 	svcpl	0x00646c6f
 7ec:	7366666f 	cmnvc	r6, #116391936	; 0x6f00000
 7f0:	6d007465 	cfstrsvs	mvf7, [r0, #-404]	; 0xfffffe6c
 7f4:	006e6961 	rsbeq	r6, lr, r1, ror #18
 7f8:	5f4f495f 	svcpl	0x004f495f
 7fc:	74697277 	strbtvc	r7, [r9], #-631	; 0x277
 800:	61625f65 	cmnvs	r2, r5, ror #30
 804:	69006573 	stmdbvs	r0, {r0, r1, r4, r5, r6, r8, sl, sp, lr}
 808:	7265686e 	rsbvc	r6, r5, #7208960	; 0x6e0000
 80c:	735f7469 	cmpvc	pc, #1761607680	; 0x69000000
 810:	00746174 	rsbseq	r6, r4, r4, ror r1
 814:	75736572 	ldrbvc	r6, [r3, #-1394]!	; 0x572
 818:	6900746c 	stmdbvs	r0, {r2, r3, r5, r6, sl, ip, sp, lr}
 81c:	7274696e 	rsbsvc	r6, r4, #1802240	; 0x1b8000
 820:	6600676e 	strvs	r6, [r0], -lr, ror #14
 824:	76656464 	strbtvc	r6, [r5], -r4, ror #8
 828:	616e6500 	cmnvs	lr, r0, lsl #10
 82c:	5f656c62 	svcpl	0x00656c62
 830:	655f6e6f 	ldrbvs	r6, [pc, #-3695]	; fffff9c9 <__bss_end__+0xfffed685>
 834:	00636578 	rsbeq	r6, r3, r8, ror r5
 838:	696d6974 	stmdbvs	sp!, {r2, r4, r5, r6, r8, fp, sp, lr}^
 83c:	6f6c676e 	svcvs	0x006c676e
 840:	Address 0x00000840 is out of bounds.


Disassembly of section .debug_loc:

00000000 <.debug_loc>:
       0:	000093e8 	andeq	r9, r0, r8, ror #7
       4:	000093fc 	strdeq	r9, [r0], -ip
       8:	fc500001 	mrrc2	0, 0, r0, r0, cr1	; <UNPREDICTABLE>
       c:	0c000093 	stceq	0, cr0, [r0], {147}	; 0x93
      10:	04000094 	streq	r0, [r0], #-148	; 0x94
      14:	5001f300 	andpl	pc, r1, r0, lsl #6
      18:	0000009f 	muleq	r0, pc, r0	; <UNPREDICTABLE>
      1c:	00000000 	andeq	r0, r0, r0
      20:	00942400 	addseq	r2, r4, r0, lsl #8
      24:	00942700 	addseq	r2, r4, r0, lsl #14
      28:	50000100 	andpl	r0, r0, r0, lsl #2
      2c:	00009427 	andeq	r9, r0, r7, lsr #8
      30:	00009438 	andeq	r9, r0, r8, lsr r4
      34:	00540001 	subseq	r0, r4, r1
      38:	00000000 	andeq	r0, r0, r0
      3c:	38000000 	stmdacc	r0, {}	; <UNPREDICTABLE>
      40:	64000094 	strvs	r0, [r0], #-148	; 0x94
      44:	01000094 	swpeq	r0, r4, [r0]	; <UNPREDICTABLE>
      48:	94645000 	strbtls	r5, [r4], #-0
      4c:	95040000 	strls	r0, [r4, #-0]
      50:	00010000 	andeq	r0, r1, r0
      54:	00950459 	addseq	r0, r5, r9, asr r4
      58:	00950c00 	addseq	r0, r5, r0, lsl #24
      5c:	50000100 	andpl	r0, r0, r0, lsl #2
      60:	0000950c 	andeq	r9, r0, ip, lsl #10
      64:	00009530 	andeq	r9, r0, r0, lsr r5
      68:	01f30004 	mvnseq	r0, r4
      6c:	00009f50 	andeq	r9, r0, r0, asr pc
      70:	00000000 	andeq	r0, r0, r0
      74:	94380000 	ldrtls	r0, [r8], #-0
      78:	94640000 	strbtls	r0, [r4], #-0
      7c:	00010000 	andeq	r0, r1, r0
      80:	00946451 	addseq	r6, r4, r1, asr r4
      84:	00950400 	addseq	r0, r5, r0, lsl #8
      88:	57000100 	strpl	r0, [r0, -r0, lsl #2]
      8c:	00009504 	andeq	r9, r0, r4, lsl #10
      90:	00009510 	andeq	r9, r0, r0, lsl r5
      94:	10510001 	subsne	r0, r1, r1
      98:	30000095 	mulcc	r0, r5, r0
      9c:	01000095 	swpeq	r0, r5, [r0]	; <UNPREDICTABLE>
      a0:	00005700 	andeq	r5, r0, r0, lsl #14
      a4:	00000000 	andeq	r0, r0, r0
      a8:	94640000 	strbtls	r0, [r4], #-0
      ac:	948c0000 	strls	r0, [ip], #0
      b0:	00010000 	andeq	r0, r1, r0
      b4:	00949e54 	addseq	r9, r4, r4, asr lr
      b8:	0094b100 	addseq	fp, r4, r0, lsl #2
      bc:	53000100 	movwpl	r0, #256	; 0x100
      c0:	000094b1 			; <UNDEFINED> instruction: 0x000094b1
      c4:	000094b8 			; <UNDEFINED> instruction: 0x000094b8
      c8:	02740003 	rsbseq	r0, r4, #3
      cc:	0094b89f 	umullseq	fp, r4, pc, r8	; <UNPREDICTABLE>
      d0:	0094cd00 	addseq	ip, r4, r0, lsl #26
      d4:	53000100 	movwpl	r0, #256	; 0x100
      d8:	000094cd 	andeq	r9, r0, sp, asr #9
      dc:	000094ce 	andeq	r9, r0, lr, asr #9
      e0:	7f740003 	svcvc	0x00740003
      e4:	0094ce9f 	umullseq	ip, r4, pc, lr	; <UNPREDICTABLE>
      e8:	0094d600 	addseq	sp, r4, r0, lsl #12
      ec:	54000100 	strpl	r0, [r0], #-256	; 0x100
      f0:	000094de 	ldrdeq	r9, [r0], -lr
      f4:	000094e4 	andeq	r9, r0, r4, ror #9
      f8:	e4540001 	ldrb	r0, [r4], #-1
      fc:	f3000094 	vqadd.u8	d0, d16, d4
     100:	02000094 	andeq	r0, r0, #148	; 0x94
     104:	f34f9000 	vhadd.u8	d25, d15, d0
     108:	f4000094 	vst4.32	{d0-d3}, [r0 :64], r4
     10c:	03000094 	movweq	r0, #148	; 0x94
     110:	9f7f7400 	svcls	0x007f7400
     114:	000094f4 	strdeq	r9, [r0], -r4
     118:	00009504 	andeq	r9, r0, r4, lsl #10
     11c:	00540001 	subseq	r0, r4, r1
     120:	00000000 	andeq	r0, r0, r0
     124:	30000000 	andcc	r0, r0, r0
     128:	5a000095 	bpl	384 <shift+0x384>
     12c:	01000095 	swpeq	r0, r5, [r0]	; <UNPREDICTABLE>
     130:	955a5000 	ldrbls	r5, [sl, #-0]
     134:	961c0000 	ldrls	r0, [ip], -r0
     138:	00010000 	andeq	r0, r1, r0
     13c:	00961c59 	addseq	r1, r6, r9, asr ip
     140:	00962400 	addseq	r2, r6, r0, lsl #8
     144:	f3000400 	vshl.u8	d0, d0, d0
     148:	249f5001 	ldrcs	r5, [pc], #1	; 150 <shift+0x150>
     14c:	30000096 	mulcc	r0, r6, r0
     150:	01000096 	swpeq	r0, r6, [r0]	; <UNPREDICTABLE>
     154:	00005000 	andeq	r5, r0, r0
     158:	00000000 	andeq	r0, r0, r0
     15c:	95300000 	ldrls	r0, [r0, #-0]!
     160:	955a0000 	ldrbls	r0, [sl, #-0]
     164:	00010000 	andeq	r0, r1, r0
     168:	00955a51 	addseq	r5, r5, r1, asr sl
     16c:	00962400 	addseq	r2, r6, r0, lsl #8
     170:	57000100 	strpl	r0, [r0, -r0, lsl #2]
     174:	00009624 	andeq	r9, r0, r4, lsr #12
     178:	00009630 	andeq	r9, r0, r0, lsr r6
     17c:	00510001 	subseq	r0, r1, r1
     180:	00000000 	andeq	r0, r0, r0
     184:	30000000 	andcc	r0, r0, r0
     188:	5a000095 	bpl	3e4 <shift+0x3e4>
     18c:	08000095 	stmdaeq	r0, {r0, r2, r4, r7}
     190:	93409000 	movtls	r9, #0
     194:	93419004 	movtls	r9, #4100	; 0x1004
     198:	00955a04 	addseq	r5, r5, r4, lsl #20
     19c:	00961c00 	addseq	r1, r6, r0, lsl #24
     1a0:	90000800 	andls	r0, r0, r0, lsl #16
     1a4:	90049350 	andls	r9, r4, r0, asr r3
     1a8:	1c049351 	stcne	3, cr9, [r4], {81}	; 0x51
     1ac:	24000096 	strcs	r0, [r0], #-150	; 0x96
     1b0:	06000096 			; <UNDEFINED> instruction: 0x06000096
     1b4:	f503f300 			; <UNDEFINED> instruction: 0xf503f300
     1b8:	249f2540 	ldrcs	r2, [pc], #1344	; 1c0 <shift+0x1c0>
     1bc:	30000096 	mulcc	r0, r6, r0
     1c0:	08000096 	stmdaeq	r0, {r1, r2, r4, r7}
     1c4:	93409000 	movtls	r9, #0
     1c8:	93419004 	movtls	r9, #4100	; 0x1004
     1cc:	00000004 	andeq	r0, r0, r4
     1d0:	00000000 	andeq	r0, r0, r0
     1d4:	00953000 	addseq	r3, r5, r0
     1d8:	00955a00 	addseq	r5, r5, r0, lsl #20
     1dc:	30000200 	andcc	r0, r0, r0, lsl #4
     1e0:	00955a9f 	umullseq	r5, r5, pc, sl	; <UNPREDICTABLE>
     1e4:	00958200 	addseq	r8, r5, r0, lsl #4
     1e8:	56000100 	strpl	r0, [r0], -r0, lsl #2
     1ec:	00009582 	andeq	r9, r0, r2, lsl #11
     1f0:	000095a2 	andeq	r9, r0, r2, lsr #11
     1f4:	01760003 	cmneq	r6, r3
     1f8:	0095a29f 	umullseq	sl, r5, pc, r2	; <UNPREDICTABLE>
     1fc:	0095c200 	addseq	ip, r5, r0, lsl #4
     200:	76000300 	strvc	r0, [r0], -r0, lsl #6
     204:	95c29f02 	strbls	r9, [r2, #3842]	; 0xf02
     208:	95c60000 	strbls	r0, [r6]
     20c:	00030000 	andeq	r0, r3, r0
     210:	c69f0376 			; <UNDEFINED> instruction: 0xc69f0376
     214:	ea000095 	b	470 <shift+0x470>
     218:	01000095 	swpeq	r0, r5, [r0]	; <UNPREDICTABLE>
     21c:	95f65400 	ldrbls	r5, [r6, #1024]!	; 0x400
     220:	961c0000 	ldrls	r0, [ip], -r0
     224:	00010000 	andeq	r0, r1, r0
     228:	00962454 	addseq	r2, r6, r4, asr r4
     22c:	00963000 	addseq	r3, r6, r0
     230:	30000200 	andcc	r0, r0, r0, lsl #4
     234:	0000009f 	muleq	r0, pc, r0	; <UNPREDICTABLE>
     238:	00000000 	andeq	r0, r0, r0
     23c:	00963000 	addseq	r3, r6, r0
     240:	00966600 	addseq	r6, r6, r0, lsl #12
     244:	50000100 	andpl	r0, r0, r0, lsl #2
     248:	00009666 	andeq	r9, r0, r6, ror #12
     24c:	0000980e 	andeq	r9, r0, lr, lsl #16
     250:	0e560001 	cdpeq	0, 5, cr0, cr6, cr1, {0}
     254:	12000098 	andne	r0, r0, #152	; 0x98
     258:	01000098 	swpeq	r0, r8, [r0]	; <UNPREDICTABLE>
     25c:	98125000 	ldmdals	r2, {ip, lr}
     260:	98200000 	stmdals	r0!, {}	; <UNPREDICTABLE>
     264:	00010000 	andeq	r0, r1, r0
     268:	00000056 	andeq	r0, r0, r6, asr r0
     26c:	00000000 	andeq	r0, r0, r0
     270:	00963000 	addseq	r3, r6, r0
     274:	00966600 	addseq	r6, r6, r0, lsl #12
     278:	51000100 	mrspl	r0, (UNDEF: 16)
     27c:	00009666 	andeq	r9, r0, r6, ror #12
     280:	0000980e 	andeq	r9, r0, lr, lsl #16
     284:	0e550001 	cdpeq	0, 5, cr0, cr5, cr1, {0}
     288:	12000098 	andne	r0, r0, #152	; 0x98
     28c:	01000098 	swpeq	r0, r8, [r0]	; <UNPREDICTABLE>
     290:	98125100 	ldmdals	r2, {r8, ip, lr}
     294:	98200000 	stmdals	r0!, {}	; <UNPREDICTABLE>
     298:	00010000 	andeq	r0, r1, r0
     29c:	00000055 	andeq	r0, r0, r5, asr r0
     2a0:	00000000 	andeq	r0, r0, r0
     2a4:	00963000 	addseq	r3, r6, r0
     2a8:	00966600 	addseq	r6, r6, r0, lsl #12
     2ac:	90000800 	andls	r0, r0, r0, lsl #16
     2b0:	90049340 	andls	r9, r4, r0, asr #6
     2b4:	66049341 	strvs	r9, [r4], -r1, asr #6
     2b8:	2e000096 	mcrcs	0, 0, r0, cr0, cr6, {4}
     2bc:	08000097 	stmdaeq	r0, {r0, r1, r2, r4, r7}
     2c0:	93509000 	cmpls	r0, #0
     2c4:	93519004 	cmpls	r1, #4
     2c8:	00972e04 	addseq	r2, r7, r4, lsl #28
     2cc:	00980e00 	addseq	r0, r8, r0, lsl #28
     2d0:	f3000600 	vmax.u8	d0, d0, d0
     2d4:	2540f503 	strbcs	pc, [r0, #-1283]	; 0x503	; <UNPREDICTABLE>
     2d8:	00980e9f 	umullseq	r0, r8, pc, lr	; <UNPREDICTABLE>
     2dc:	00981200 	addseq	r1, r8, r0, lsl #4
     2e0:	90000800 	andls	r0, r0, r0, lsl #16
     2e4:	90049340 	andls	r9, r4, r0, asr #6
     2e8:	12049341 	andne	r9, r4, #67108865	; 0x4000001
     2ec:	20000098 	mulcs	r0, r8, r0
     2f0:	06000098 			; <UNDEFINED> instruction: 0x06000098
     2f4:	f503f300 			; <UNDEFINED> instruction: 0xf503f300
     2f8:	009f2540 	addseq	r2, pc, r0, asr #10
     2fc:	00000000 	andeq	r0, r0, r0
     300:	30000000 	andcc	r0, r0, r0
     304:	66000096 			; <UNDEFINED> instruction: 0x66000096
     308:	01000096 	swpeq	r0, r6, [r0]	; <UNPREDICTABLE>
     30c:	96665200 	strbtls	r5, [r6], -r0, lsl #4
     310:	980e0000 	stmdals	lr, {}	; <UNPREDICTABLE>
     314:	00030000 	andeq	r0, r3, r0
     318:	0e7fbc91 	mrceq	12, 3, fp, cr15, cr1, {4}
     31c:	12000098 	andne	r0, r0, #152	; 0x98
     320:	01000098 	swpeq	r0, r8, [r0]	; <UNPREDICTABLE>
     324:	98125200 	ldmdals	r2, {r9, ip, lr}
     328:	98200000 	stmdals	r0!, {}	; <UNPREDICTABLE>
     32c:	00030000 	andeq	r0, r3, r0
     330:	007fbc91 			; <UNDEFINED> instruction: 0x007fbc91
     334:	00000000 	andeq	r0, r0, r0
     338:	30000000 	andcc	r0, r0, r0
     33c:	66000096 			; <UNDEFINED> instruction: 0x66000096
     340:	01000096 	swpeq	r0, r6, [r0]	; <UNPREDICTABLE>
     344:	96665300 	strbtls	r5, [r6], -r0, lsl #6
     348:	980e0000 	stmdals	lr, {}	; <UNPREDICTABLE>
     34c:	00010000 	andeq	r0, r1, r0
     350:	00980e58 	addseq	r0, r8, r8, asr lr
     354:	00981200 	addseq	r1, r8, r0, lsl #4
     358:	53000100 	movwpl	r0, #256	; 0x100
     35c:	00009812 	andeq	r9, r0, r2, lsl r8
     360:	00009820 	andeq	r9, r0, r0, lsr #16
     364:	00580001 	subseq	r0, r8, r1
     368:	00000000 	andeq	r0, r0, r0
     36c:	30000000 	andcc	r0, r0, r0
     370:	0e000096 	mcreq	0, 0, r0, cr0, cr6, {4}
     374:	02000098 	andeq	r0, r0, #152	; 0x98
     378:	0e009100 	mvfeqs	f1, f0
     37c:	20000098 	mulcs	r0, r8, r0
     380:	02000098 	andeq	r0, r0, #152	; 0x98
     384:	00009100 	andeq	r9, r0, r0, lsl #2
     388:	00000000 	andeq	r0, r0, r0
     38c:	2e000000 	cdpcs	0, 0, cr0, cr0, cr0, {0}
     390:	4e000097 	mcrmi	0, 0, r0, cr0, cr7, {4}
     394:	02000097 	andeq	r0, r0, #151	; 0x97
     398:	4e9f3000 	cdpmi	0, 9, cr3, cr15, cr0, {0}
     39c:	7c000097 	stcvc	0, cr0, [r0], {151}	; 0x97
     3a0:	07000097 			; <UNDEFINED> instruction: 0x07000097
     3a4:	20007700 	andcs	r7, r0, r0, lsl #14
     3a8:	9f22007a 	svcls	0x0022007a
     3ac:	0000977c 	andeq	r9, r0, ip, ror r7
     3b0:	0000979a 	muleq	r0, sl, r7
     3b4:	007a0006 	rsbseq	r0, sl, r6
     3b8:	9f1c0077 	svcls	0x001c0077
     3bc:	0000979a 	muleq	r0, sl, r7
     3c0:	000097b4 			; <UNDEFINED> instruction: 0x000097b4
     3c4:	007a0008 	rsbseq	r0, sl, r8
     3c8:	231c0077 	tstcs	ip, #119	; 0x77
     3cc:	97b49f01 	ldrls	r9, [r4, r1, lsl #30]!
     3d0:	97bc0000 	ldrls	r0, [ip, r0]!
     3d4:	00080000 	andeq	r0, r8, r0
     3d8:	0077007a 	rsbseq	r0, r7, sl, ror r0
     3dc:	9f1c331c 	svcls	0x001c331c
     3e0:	000097c0 	andeq	r9, r0, r0, asr #15
     3e4:	000097dc 	ldrdeq	r9, [r0], -ip
     3e8:	e2540001 	subs	r0, r4, #1
     3ec:	04000097 	streq	r0, [r0], #-151	; 0x97
     3f0:	01000098 	swpeq	r0, r8, [r0]	; <UNPREDICTABLE>
     3f4:	98125400 	ldmdals	r2, {sl, ip, lr}
     3f8:	98200000 	stmdals	r0!, {}	; <UNPREDICTABLE>
     3fc:	00020000 	andeq	r0, r2, r0
     400:	00009f30 	andeq	r9, r0, r0, lsr pc
     404:	00000000 	andeq	r0, r0, r0
     408:	963e0000 	ldrtls	r0, [lr], -r0
     40c:	96660000 	strbtls	r0, [r6], -r0
     410:	00010000 	andeq	r0, r1, r0
     414:	00966651 	addseq	r6, r6, r1, asr r6
     418:	00980e00 	addseq	r0, r8, r0, lsl #28
     41c:	55000100 	strpl	r0, [r0, #-256]	; 0x100
     420:	0000980e 	andeq	r9, r0, lr, lsl #16
     424:	00009812 	andeq	r9, r0, r2, lsl r8
     428:	12510001 	subsne	r0, r1, #1
     42c:	20000098 	mulcs	r0, r8, r0
     430:	01000098 	swpeq	r0, r8, [r0]	; <UNPREDICTABLE>
     434:	00005500 	andeq	r5, r0, r0, lsl #10
     438:	00000000 	andeq	r0, r0, r0
     43c:	963e0000 	ldrtls	r0, [lr], -r0
     440:	96660000 	strbtls	r0, [r6], -r0
     444:	00010000 	andeq	r0, r1, r0
     448:	00966650 	addseq	r6, r6, r0, asr r6
     44c:	00980e00 	addseq	r0, r8, r0, lsl #28
     450:	56000100 	strpl	r0, [r0], -r0, lsl #2
     454:	0000980e 	andeq	r9, r0, lr, lsl #16
     458:	00009812 	andeq	r9, r0, r2, lsl r8
     45c:	12500001 	subsne	r0, r0, #1
     460:	20000098 	mulcs	r0, r8, r0
     464:	01000098 	swpeq	r0, r8, [r0]	; <UNPREDICTABLE>
     468:	00005600 	andeq	r5, r0, r0, lsl #12
     46c:	00000000 	andeq	r0, r0, r0
     470:	963e0000 	ldrtls	r0, [lr], -r0
     474:	96660000 	strbtls	r0, [r6], -r0
     478:	00020000 	andeq	r0, r2, r0
     47c:	96669f30 	uqasxls	r9, r6, r0
     480:	96920000 	ldrls	r0, [r2], r0
     484:	00010000 	andeq	r0, r1, r0
     488:	00969259 	addseq	r9, r6, r9, asr r2
     48c:	0096b200 	addseq	fp, r6, r0, lsl #4
     490:	79000300 	stmdbvc	r0, {r8, r9}
     494:	96b29f01 	ldrtls	r9, [r2], r1, lsl #30
     498:	96d20000 	ldrbls	r0, [r2], r0
     49c:	00030000 	andeq	r0, r3, r0
     4a0:	d29f0279 	addsle	r0, pc, #-1879048185	; 0x90000007
     4a4:	d6000096 			; <UNDEFINED> instruction: 0xd6000096
     4a8:	03000096 	movweq	r0, #150	; 0x96
     4ac:	9f037900 	svcls	0x00037900
     4b0:	000096d6 	ldrdeq	r9, [r0], -r6
     4b4:	000096fc 	strdeq	r9, [r0], -ip
     4b8:	08540001 	ldmdaeq	r4, {r0}^
     4bc:	2e000097 	mcrcs	0, 0, r0, cr0, cr7, {4}
     4c0:	01000097 	swpeq	r0, r7, [r0]	; <UNPREDICTABLE>
     4c4:	980e5400 	stmdals	lr, {sl, ip, lr}
     4c8:	98120000 	ldmdals	r2, {}	; <UNPREDICTABLE>
     4cc:	00020000 	andeq	r0, r2, r0
     4d0:	00009f30 	andeq	r9, r0, r0, lsr pc
     4d4:	00000000 	andeq	r0, r0, r0
     4d8:	98200000 	stmdals	r0!, {}	; <UNPREDICTABLE>
     4dc:	98de0000 	ldmls	lr, {}^	; <UNPREDICTABLE>
     4e0:	00010000 	andeq	r0, r1, r0
     4e4:	0098de50 	addseq	sp, r8, r0, asr lr
     4e8:	00990a00 	addseq	r0, r9, r0, lsl #20
     4ec:	f3000400 	vshl.u8	d0, d0, d0
     4f0:	0a9f5001 	beq	fe7d44fc <__bss_end__+0xfe7c21b8>
     4f4:	10000099 	mulne	r0, r9, r0
     4f8:	01000099 	swpeq	r0, r9, [r0]	; <UNPREDICTABLE>
     4fc:	99105000 	ldmdbls	r0, {ip, lr}
     500:	99120000 	ldmdbls	r2, {}	; <UNPREDICTABLE>
     504:	00040000 	andeq	r0, r4, r0
     508:	9f5001f3 	svcls	0x005001f3
	...
     514:	00009820 	andeq	r9, r0, r0, lsr #16
     518:	00009844 	andeq	r9, r0, r4, asr #16
     51c:	9f300002 	svcls	0x00300002
     520:	000098ce 	andeq	r9, r0, lr, asr #17
     524:	000098da 	ldrdeq	r9, [r0], -sl
     528:	00530001 	subseq	r0, r3, r1
     52c:	0a000099 	beq	798 <shift+0x798>
     530:	01000099 	swpeq	r0, r9, [r0]	; <UNPREDICTABLE>
     534:	990a5300 	stmdbls	sl, {r8, r9, ip, lr}
     538:	99120000 	ldmdbls	r2, {}	; <UNPREDICTABLE>
     53c:	00020000 	andeq	r0, r2, r0
     540:	00009f30 	andeq	r9, r0, r0, lsr pc
     544:	00000000 	andeq	r0, r0, r0
     548:	98200000 	stmdals	r0!, {}	; <UNPREDICTABLE>
     54c:	98440000 	stmdals	r4, {}^	; <UNPREDICTABLE>
     550:	00020000 	andeq	r0, r2, r0
     554:	98ce9f30 	stmials	lr, {r4, r5, r8, r9, sl, fp, ip, pc}^
     558:	98da0000 	ldmls	sl, {}^	; <UNPREDICTABLE>
     55c:	00010000 	andeq	r0, r1, r0
     560:	00990052 	addseq	r0, r9, r2, asr r0
     564:	00990a00 	addseq	r0, r9, r0, lsl #20
     568:	52000100 	andpl	r0, r0, #0, 2
     56c:	0000990a 	andeq	r9, r0, sl, lsl #18
     570:	00009912 	andeq	r9, r0, r2, lsl r9
     574:	9f300002 	svcls	0x00300002
	...
     580:	00009914 	andeq	r9, r0, r4, lsl r9
     584:	00009930 	andeq	r9, r0, r0, lsr r9
     588:	30500001 	subscc	r0, r0, r1
     58c:	d4000099 	strle	r0, [r0], #-153	; 0x99
     590:	0100009a 	swpeq	r0, sl, [r0]	; <UNPREDICTABLE>
     594:	00005900 	andeq	r5, r0, r0, lsl #18
     598:	00000000 	andeq	r0, r0, r0
     59c:	99140000 	ldmdbls	r4, {}	; <UNPREDICTABLE>
     5a0:	993a0000 	ldmdbls	sl!, {}	; <UNPREDICTABLE>
     5a4:	00010000 	andeq	r0, r1, r0
     5a8:	00993a51 	addseq	r3, r9, r1, asr sl
     5ac:	009acc00 	addseq	ip, sl, r0, lsl #24
     5b0:	57000100 	strpl	r0, [r0, -r0, lsl #2]
     5b4:	00009acc 	andeq	r9, r0, ip, asr #21
     5b8:	00009ad0 	ldrdeq	r9, [r0], -r0
     5bc:	d0510001 	subsle	r0, r1, r1
     5c0:	d400009a 	strle	r0, [r0], #-154	; 0x9a
     5c4:	0100009a 	swpeq	r0, sl, [r0]	; <UNPREDICTABLE>
     5c8:	00005700 	andeq	r5, r0, r0, lsl #14
     5cc:	00000000 	andeq	r0, r0, r0
     5d0:	99140000 	ldmdbls	r4, {}	; <UNPREDICTABLE>
     5d4:	99ee0000 	stmibls	lr!, {}^	; <UNPREDICTABLE>
     5d8:	00010000 	andeq	r0, r1, r0
     5dc:	0099ee52 	addseq	lr, r9, r2, asr lr
     5e0:	009acc00 	addseq	ip, sl, r0, lsl #24
     5e4:	f3000400 	vshl.u8	d0, d0, d0
     5e8:	cc9f5201 	lfmgt	f5, 4, [pc], {1}
     5ec:	d000009a 	mulle	r0, sl, r0
     5f0:	0100009a 	swpeq	r0, sl, [r0]	; <UNPREDICTABLE>
     5f4:	9ad05200 	bls	ff414dfc <__bss_end__+0xff402ab8>
     5f8:	9ad40000 	bls	ff500600 <__bss_end__+0xff4ee2bc>
     5fc:	00040000 	andeq	r0, r4, r0
     600:	9f5201f3 	svcls	0x005201f3
	...
     60c:	00009914 	andeq	r9, r0, r4, lsl r9
     610:	0000993a 	andeq	r9, r0, sl, lsr r9
     614:	3a530001 	bcc	14c0620 <__bss_end__+0x14ae2dc>
     618:	cc000099 	stcgt	0, cr0, [r0], {153}	; 0x99
     61c:	0100009a 	swpeq	r0, sl, [r0]	; <UNPREDICTABLE>
     620:	9acc5800 	bls	ff316628 <__bss_end__+0xff3042e4>
     624:	9ad00000 	bls	ff40062c <__bss_end__+0xff3ee2e8>
     628:	00010000 	andeq	r0, r1, r0
     62c:	009ad053 	addseq	sp, sl, r3, asr r0
     630:	009ad400 	addseq	sp, sl, r0, lsl #8
     634:	58000100 	stmdapl	r0, {r8}
	...
     640:	00009a0c 	andeq	r9, r0, ip, lsl #20
     644:	00009a24 	andeq	r9, r0, r4, lsr #20
     648:	9f300002 	svcls	0x00300002
     64c:	00009a24 	andeq	r9, r0, r4, lsr #20
     650:	00009a32 	andeq	r9, r0, r2, lsr sl
     654:	00780007 	rsbseq	r0, r8, r7
     658:	22007520 	andcs	r7, r0, #32, 10	; 0x8000000
     65c:	009a329f 	umullseq	r3, sl, pc, r2	; <UNPREDICTABLE>
     660:	009a4a00 	addseq	r4, sl, r0, lsl #20
     664:	75000800 	strvc	r0, [r0, #-2048]	; 0x800
     668:	1c007800 	stcne	8, cr7, [r0], {-0}
     66c:	8a9f1c35 	bhi	fe7c7748 <__bss_end__+0xfe7b5404>
     670:	a000009a 	mulge	r0, sl, r0
     674:	0100009a 	swpeq	r0, sl, [r0]	; <UNPREDICTABLE>
     678:	9aa45400 	bls	fe915680 <__bss_end__+0xfe90333c>
     67c:	9ac40000 	bls	ff100684 <__bss_end__+0xff0ee340>
     680:	00010000 	andeq	r0, r1, r0
     684:	009ad054 	addseq	sp, sl, r4, asr r0
     688:	009ad400 	addseq	sp, sl, r0, lsl #8
     68c:	30000200 	andcc	r0, r0, r0, lsl #4
     690:	0000009f 	muleq	r0, pc, r0	; <UNPREDICTABLE>
     694:	00000000 	andeq	r0, r0, r0
     698:	009a0c00 	addseq	r0, sl, r0, lsl #24
     69c:	009ac800 	addseq	ip, sl, r0, lsl #16
     6a0:	90000800 	andls	r0, r0, r0, lsl #16
     6a4:	90049350 	andls	r9, r4, r0, asr r3
     6a8:	d0049351 	andle	r9, r4, r1, asr r3
     6ac:	d400009a 	strle	r0, [r0], #-154	; 0x9a
     6b0:	0800009a 	stmdaeq	r0, {r1, r3, r4, r7}
     6b4:	93509000 	cmpls	r0, #0
     6b8:	93519004 	cmpls	r1, #4
     6bc:	00000004 	andeq	r0, r0, r4
     6c0:	00000000 	andeq	r0, r0, r0
     6c4:	00992000 	addseq	r2, r9, r0
     6c8:	00993a00 	addseq	r3, r9, r0, lsl #20
     6cc:	51000100 	mrspl	r0, (UNDEF: 16)
     6d0:	0000993a 	andeq	r9, r0, sl, lsr r9
     6d4:	00009acc 	andeq	r9, r0, ip, asr #21
     6d8:	cc570001 	mrrcgt	0, 0, r0, r7, cr1
     6dc:	d000009a 	mulle	r0, sl, r0
     6e0:	0100009a 	swpeq	r0, sl, [r0]	; <UNPREDICTABLE>
     6e4:	9ad05100 	bls	ff414aec <__bss_end__+0xff4027a8>
     6e8:	9ad40000 	bls	ff5006f0 <__bss_end__+0xff4ee3ac>
     6ec:	00010000 	andeq	r0, r1, r0
     6f0:	00000057 	andeq	r0, r0, r7, asr r0
     6f4:	00000000 	andeq	r0, r0, r0
     6f8:	00992000 	addseq	r2, r9, r0
     6fc:	00993000 	addseq	r3, r9, r0
     700:	50000100 	andpl	r0, r0, r0, lsl #2
     704:	00009930 	andeq	r9, r0, r0, lsr r9
     708:	00009ad4 	ldrdeq	r9, [r0], -r4
     70c:	00590001 	subseq	r0, r9, r1
     710:	00000000 	andeq	r0, r0, r0
     714:	20000000 	andcs	r0, r0, r0
     718:	3a000099 	bcc	984 <shift+0x984>
     71c:	02000099 	andeq	r0, r0, #153	; 0x99
     720:	aa9f3000 	bge	fe7cc728 <__bss_end__+0xfe7ba3e4>
     724:	b6000099 			; <UNDEFINED> instruction: 0xb6000099
     728:	01000099 	swpeq	r0, r9, [r0]	; <UNPREDICTABLE>
     72c:	99d65300 	ldmibls	r6, {r8, r9, ip, lr}^
     730:	99da0000 	ldmibls	sl, {}^	; <UNPREDICTABLE>
     734:	00010000 	andeq	r0, r1, r0
     738:	009acc54 	addseq	ip, sl, r4, asr ip
     73c:	009ad000 	addseq	sp, sl, r0
     740:	30000200 	andcc	r0, r0, r0, lsl #4
     744:	0000009f 	muleq	r0, pc, r0	; <UNPREDICTABLE>
     748:	00000000 	andeq	r0, r0, r0
     74c:	00992000 	addseq	r2, r9, r0
     750:	00993a00 	addseq	r3, r9, r0, lsl #20
     754:	30000200 	andcc	r0, r0, r0, lsl #4
     758:	009acc9f 	umullseq	ip, sl, pc, ip	; <UNPREDICTABLE>
     75c:	009ad000 	addseq	sp, sl, r0
     760:	30000200 	andcc	r0, r0, r0, lsl #4
     764:	0000009f 	muleq	r0, pc, r0	; <UNPREDICTABLE>
     768:	00000000 	andeq	r0, r0, r0
     76c:	009ad400 	addseq	sp, sl, r0, lsl #8
     770:	009ae400 	addseq	lr, sl, r0, lsl #8
     774:	50000100 	andpl	r0, r0, r0, lsl #2
     778:	00009ae4 	andeq	r9, r0, r4, ror #21
     77c:	00009aee 	andeq	r9, r0, lr, ror #21
     780:	ee540001 	cdp	0, 5, cr0, cr4, cr1, {0}
     784:	1000009a 	mulne	r0, sl, r0
     788:	0400009b 	streq	r0, [r0], #-155	; 0x9b
     78c:	5001f300 	andpl	pc, r1, r0, lsl #6
     790:	0000009f 	muleq	r0, pc, r0	; <UNPREDICTABLE>
     794:	00000000 	andeq	r0, r0, r0
     798:	009ad400 	addseq	sp, sl, r0, lsl #8
     79c:	009adc00 	addseq	sp, sl, r0, lsl #24
     7a0:	51000100 	mrspl	r0, (UNDEF: 16)
     7a4:	00009adc 	ldrdeq	r9, [r0], -ip
     7a8:	00009aee 	andeq	r9, r0, lr, ror #21
     7ac:	ee560001 	cdp	0, 5, cr0, cr6, cr1, {0}
     7b0:	1000009a 	mulne	r0, sl, r0
     7b4:	0400009b 	streq	r0, [r0], #-155	; 0x9b
     7b8:	5101f300 	mrspl	pc, SP_irq	; <UNPREDICTABLE>
     7bc:	0000009f 	muleq	r0, pc, r0	; <UNPREDICTABLE>
     7c0:	00000000 	andeq	r0, r0, r0
     7c4:	009ad400 	addseq	sp, sl, r0, lsl #8
     7c8:	009ae700 	addseq	lr, sl, r0, lsl #14
     7cc:	52000100 	andpl	r0, r0, #0, 2
     7d0:	00009ae7 	andeq	r9, r0, r7, ror #21
     7d4:	00009b10 	andeq	r9, r0, r0, lsl fp
     7d8:	01f30004 	mvnseq	r0, r4
     7dc:	00009f52 	andeq	r9, r0, r2, asr pc
     7e0:	00000000 	andeq	r0, r0, r0
     7e4:	9aea0000 	bls	ffa807ec <__bss_end__+0xffa6e4a8>
     7e8:	9aee0000 	bls	ffb807f0 <__bss_end__+0xffb6e4ac>
     7ec:	00020000 	andeq	r0, r2, r0
     7f0:	9aee9f30 	bls	ffba84b8 <__bss_end__+0xffb96174>
     7f4:	9af20000 	bls	ffc807fc <__bss_end__+0xffc6e4b8>
     7f8:	00070000 	andeq	r0, r7, r0
     7fc:	01f30074 	mvnseq	r0, r4, ror r0
     800:	f29f1c50 			; <UNDEFINED> instruction: 0xf29f1c50
     804:	0200009a 	andeq	r0, r0, #154	; 0x9a
     808:	0800009b 	stmdaeq	r0, {r0, r1, r3, r4, r7}
     80c:	5001f300 	andpl	pc, r1, r0, lsl #6
     810:	22007420 	andcs	r7, r0, #32, 8	; 0x20000000
     814:	009b029f 	umullseq	r0, fp, pc, r2	; <UNPREDICTABLE>
     818:	009b0600 	addseq	r0, fp, r0, lsl #12
     81c:	74000900 	strvc	r0, [r0], #-2304	; 0x900
     820:	5001f300 	andpl	pc, r1, r0, lsl #6
     824:	9f01231c 	svcls	0x0001231c
	...
     830:	00009aea 	andeq	r9, r0, sl, ror #21
     834:	00009aee 	andeq	r9, r0, lr, ror #21
     838:	ee500001 	cdp	0, 5, cr0, cr0, cr1, {0}
     83c:	0c00009a 	stceq	0, cr0, [r0], {154}	; 0x9a
     840:	0100009b 	swpeq	r0, fp, [r0]	; <UNPREDICTABLE>
     844:	9b0c5500 	blls	315c4c <__bss_end__+0x303908>
     848:	9b0f0000 	blls	3c0850 <__bss_end__+0x3ae50c>
     84c:	00010000 	andeq	r0, r1, r0
     850:	00000050 	andeq	r0, r0, r0, asr r0
     854:	00000000 	andeq	r0, r0, r0
     858:	009b1000 	addseq	r1, fp, r0
     85c:	009b2c00 	addseq	r2, fp, r0, lsl #24
     860:	50000100 	andpl	r0, r0, r0, lsl #2
     864:	00009b2c 	andeq	r9, r0, ip, lsr #22
     868:	00009b96 	muleq	r0, r6, fp
     86c:	96580001 	ldrbls	r0, [r8], -r1
     870:	9c00009b 	stcls	0, cr0, [r0], {155}	; 0x9b
     874:	0400009b 	streq	r0, [r0], #-155	; 0x9b
     878:	5001f300 	andpl	pc, r1, r0, lsl #6
     87c:	009b9c9f 	umullseq	r9, fp, pc, ip	; <UNPREDICTABLE>
     880:	009ba000 	addseq	sl, fp, r0
     884:	58000100 	stmdapl	r0, {r8}
	...
     890:	00009b10 	andeq	r9, r0, r0, lsl fp
     894:	00009b22 	andeq	r9, r0, r2, lsr #22
     898:	22510001 	subscs	r0, r1, #1
     89c:	a000009b 	mulge	r0, fp, r0
     8a0:	0400009b 	streq	r0, [r0], #-155	; 0x9b
     8a4:	5101f300 	mrspl	pc, SP_irq	; <UNPREDICTABLE>
     8a8:	0000009f 	muleq	r0, pc, r0	; <UNPREDICTABLE>
     8ac:	00000000 	andeq	r0, r0, r0
     8b0:	009b1000 	addseq	r1, fp, r0
     8b4:	009b2c00 	addseq	r2, fp, r0, lsl #24
     8b8:	52000100 	andpl	r0, r0, #0, 2
     8bc:	00009b2c 	andeq	r9, r0, ip, lsr #22
     8c0:	00009b96 	muleq	r0, r6, fp
     8c4:	96540001 	ldrbls	r0, [r4], -r1
     8c8:	9c00009b 	stcls	0, cr0, [r0], {155}	; 0x9b
     8cc:	0400009b 	streq	r0, [r0], #-155	; 0x9b
     8d0:	5201f300 	andpl	pc, r1, #0, 6
     8d4:	009b9c9f 	umullseq	r9, fp, pc, ip	; <UNPREDICTABLE>
     8d8:	009ba000 	addseq	sl, fp, r0
     8dc:	54000100 	strpl	r0, [r0], #-256	; 0x100
	...
     8e8:	00009b10 	andeq	r9, r0, r0, lsl fp
     8ec:	00009b1a 	andeq	r9, r0, sl, lsl fp
     8f0:	1a530001 	bne	14c08fc <__bss_end__+0x14ae5b8>
     8f4:	a000009b 	mulge	r0, fp, r0
     8f8:	0200009b 	andeq	r0, r0, #155	; 0x9b
     8fc:	00489100 	subeq	r9, r8, r0, lsl #2
     900:	00000000 	andeq	r0, r0, r0
     904:	10000000 	andne	r0, r0, r0
     908:	9c00009b 	stcls	0, cr0, [r0], {155}	; 0x9b
     90c:	0200009b 	andeq	r0, r0, #155	; 0x9b
     910:	9c009100 	stflsd	f1, [r0], {-0}
     914:	a000009b 	mulge	r0, fp, r0
     918:	0200009b 	andeq	r0, r0, #155	; 0x9b
     91c:	00009100 	andeq	r9, r0, r0, lsl #2
     920:	00000000 	andeq	r0, r0, r0
     924:	10000000 	andne	r0, r0, r0
     928:	9c00009b 	stcls	0, cr0, [r0], {155}	; 0x9b
     92c:	0200009b 	andeq	r0, r0, #155	; 0x9b
     930:	9c049100 	stflsd	f1, [r4], {-0}
     934:	a000009b 	mulge	r0, fp, r0
     938:	0200009b 	andeq	r0, r0, #155	; 0x9b
     93c:	00049100 	andeq	r9, r4, r0, lsl #2
     940:	00000000 	andeq	r0, r0, r0
     944:	10000000 	andne	r0, r0, r0
     948:	2c00009b 	stccs	0, cr0, [r0], {155}	; 0x9b
     94c:	0200009b 	andeq	r0, r0, #155	; 0x9b
     950:	009f3000 	addseq	r3, pc, r0
     954:	00000000 	andeq	r0, r0, r0
     958:	2c000000 	stccs	0, cr0, [r0], {-0}
     95c:	3800009b 	stmdacc	r0, {r0, r1, r3, r4, r7}
     960:	0200009b 	andeq	r0, r0, #155	; 0x9b
     964:	389f3000 	ldmcc	pc, {ip, sp}	; <UNPREDICTABLE>
     968:	8400009b 	strhi	r0, [r0], #-155	; 0x9b
     96c:	0100009b 	swpeq	r0, fp, [r0]	; <UNPREDICTABLE>
     970:	9b9c5900 	blls	fe716d78 <__bss_end__+0xfe704a34>
     974:	9ba00000 	blls	fe80097c <__bss_end__+0xfe7ee638>
     978:	00020000 	andeq	r0, r2, r0
     97c:	00009f30 	andeq	r9, r0, r0, lsr pc
     980:	00000000 	andeq	r0, r0, r0
     984:	9b380000 	blls	e0098c <__bss_end__+0xdee648>
     988:	9b4c0000 	blls	1300990 <__bss_end__+0x12ee64c>
     98c:	00020000 	andeq	r0, r2, r0
     990:	00009f30 	andeq	r9, r0, r0, lsr pc
     994:	00000000 	andeq	r0, r0, r0
     998:	9b380000 	blls	e009a0 <__bss_end__+0xdee65c>
     99c:	9b4c0000 	blls	13009a4 <__bss_end__+0x12ee660>
     9a0:	00020000 	andeq	r0, r2, r0
     9a4:	9b4c9f30 	blls	132866c <__bss_end__+0x1316328>
     9a8:	9b7c0000 	blls	1f009b0 <__bss_end__+0x1eee66c>
     9ac:	00010000 	andeq	r0, r1, r0
     9b0:	0000005b 	andeq	r0, r0, fp, asr r0
     9b4:	00000000 	andeq	r0, r0, r0
     9b8:	009b2c00 	addseq	r2, fp, r0, lsl #24
     9bc:	009b3800 	addseq	r3, fp, r0, lsl #16
     9c0:	30000200 	andcc	r0, r0, r0, lsl #4
     9c4:	009b389f 	umullseq	r3, fp, pc, r8	; <UNPREDICTABLE>
     9c8:	009b7800 	addseq	r7, fp, r0, lsl #16
     9cc:	91000200 	mrsls	r0, R8_usr
     9d0:	009b7c44 	addseq	r7, fp, r4, asr #24
     9d4:	009b8400 	addseq	r8, fp, r0, lsl #8
     9d8:	91000200 	mrsls	r0, R8_usr
     9dc:	009b9c44 	addseq	r9, fp, r4, asr #24
     9e0:	009ba000 	addseq	sl, fp, r0
     9e4:	30000200 	andcc	r0, r0, r0, lsl #4
     9e8:	0000009f 	muleq	r0, pc, r0	; <UNPREDICTABLE>
     9ec:	00000000 	andeq	r0, r0, r0
     9f0:	009b2c00 	addseq	r2, fp, r0, lsl #24
     9f4:	009b3800 	addseq	r3, fp, r0, lsl #16
     9f8:	30000200 	andcc	r0, r0, r0, lsl #4
     9fc:	009b9c9f 	umullseq	r9, fp, pc, ip	; <UNPREDICTABLE>
     a00:	009ba000 	addseq	sl, fp, r0
     a04:	30000200 	andcc	r0, r0, r0, lsl #4
     a08:	0000009f 	muleq	r0, pc, r0	; <UNPREDICTABLE>
     a0c:	00000000 	andeq	r0, r0, r0
     a10:	009ba000 	addseq	sl, fp, r0
     a14:	009ba400 	addseq	sl, fp, r0, lsl #8
     a18:	50000100 	andpl	r0, r0, r0, lsl #2
     a1c:	00009ba4 	andeq	r9, r0, r4, lsr #23
     a20:	00009bba 			; <UNDEFINED> instruction: 0x00009bba
     a24:	00530001 	subseq	r0, r3, r1
     a28:	00000000 	andeq	r0, r0, r0
     a2c:	f0000000 			; <UNDEFINED> instruction: 0xf0000000
     a30:	2200009b 	andcs	r0, r0, #155	; 0x9b
     a34:	0100009c 	swpeq	r0, ip, [r0]	; <UNPREDICTABLE>
     a38:	9c225000 	stcls	0, cr5, [r2], #-0
     a3c:	9ce00000 	stclls	0, cr0, [r0]
     a40:	00040000 	andeq	r0, r4, r0
     a44:	9f5001f3 	svcls	0x005001f3
	...
     a50:	00009bf0 	strdeq	r9, [r0], -r0
     a54:	00009c02 	andeq	r9, r0, r2, lsl #24
     a58:	02510001 	subseq	r0, r1, #1
     a5c:	e000009c 	mul	r0, ip, r0
     a60:	0400009c 	streq	r0, [r0], #-156	; 0x9c
     a64:	5101f300 	mrspl	pc, SP_irq	; <UNPREDICTABLE>
     a68:	0000009f 	muleq	r0, pc, r0	; <UNPREDICTABLE>
     a6c:	00000000 	andeq	r0, r0, r0
     a70:	009bf000 	addseq	pc, fp, r0
     a74:	009c0000 	addseq	r0, ip, r0
     a78:	52000100 	andpl	r0, r0, #0, 2
     a7c:	00009c00 	andeq	r9, r0, r0, lsl #24
     a80:	00009ce0 	andeq	r9, r0, r0, ror #25
     a84:	01f30004 	mvnseq	r0, r4
     a88:	00009f52 	andeq	r9, r0, r2, asr pc
     a8c:	00000000 	andeq	r0, r0, r0
     a90:	9bf00000 	blls	ffc00a98 <__bss_end__+0xffbee754>
     a94:	9c080000 	stcls	0, cr0, [r8], {-0}
     a98:	00010000 	andeq	r0, r1, r0
     a9c:	009c0853 	addseq	r0, ip, r3, asr r8
     aa0:	009c9600 	addseq	r9, ip, r0, lsl #12
     aa4:	58000100 	stmdapl	r0, {r8}
     aa8:	00009c96 	muleq	r0, r6, ip
     aac:	00009ce0 	andeq	r9, r0, r0, ror #25
     ab0:	01f30004 	mvnseq	r0, r4
     ab4:	00009f53 	andeq	r9, r0, r3, asr pc
     ab8:	00000000 	andeq	r0, r0, r0
     abc:	9bf00000 	blls	ffc00ac4 <__bss_end__+0xffbee780>
     ac0:	9c3e0000 	ldcls	0, cr0, [lr], #-0
     ac4:	00020000 	andeq	r0, r2, r0
     ac8:	9c3e9f30 	ldcls	15, cr9, [lr], #-192	; 0xffffff40
     acc:	9c640000 	stclls	0, cr0, [r4], #-0
     ad0:	00020000 	andeq	r0, r2, r0
     ad4:	9c649f34 	stclls	15, cr9, [r4], #-208	; 0xffffff30
     ad8:	9c860000 	stcls	0, cr0, [r6], {0}
     adc:	00020000 	andeq	r0, r2, r0
     ae0:	9c869f38 	stcls	15, cr9, [r6], {56}	; 0x38
     ae4:	9ca60000 	stcls	0, cr0, [r6]
     ae8:	00020000 	andeq	r0, r2, r0
     aec:	9ca69f3c 	stcls	15, cr9, [r6], #240	; 0xf0
     af0:	9ca80000 	stcls	0, cr0, [r8]
     af4:	00020000 	andeq	r0, r2, r0
     af8:	00009f40 	andeq	r9, r0, r0, asr #30
     afc:	00000000 	andeq	r0, r0, r0
     b00:	9c220000 	stcls	0, cr0, [r2], #-0
     b04:	9c2c0000 	stcls	0, cr0, [ip], #-0
     b08:	00050000 	andeq	r0, r5, r0
     b0c:	2438007e 	ldrtcs	r0, [r8], #-126	; 0x7e
     b10:	009c2c9f 	umullseq	r2, ip, pc, ip	; <UNPREDICTABLE>
     b14:	009c3600 	addseq	r3, ip, r0, lsl #12
     b18:	73000500 	movwvc	r0, #1280	; 0x500
     b1c:	9f243800 	svcls	0x00243800
     b20:	00009c36 	andeq	r9, r0, r6, lsr ip
     b24:	00009c44 	andeq	r9, r0, r4, asr #24
     b28:	44560001 	ldrbmi	r0, [r6], #-1
     b2c:	5800009c 	stmdapl	r0, {r2, r3, r4, r7}
     b30:	0500009c 	streq	r0, [r0, #-156]	; 0x9c
     b34:	38007b00 	stmdacc	r0, {r8, r9, fp, ip, sp, lr}
     b38:	9c589f24 	mrrcls	15, 2, r9, r8, cr4
     b3c:	9c5c0000 	mrals	r0, ip, acc0
     b40:	00050000 	andeq	r0, r5, r0
     b44:	2438007a 	ldrtcs	r0, [r8], #-122	; 0x7a
     b48:	009c5c9f 	umullseq	r5, ip, pc, ip	; <UNPREDICTABLE>
     b4c:	009c6000 	addseq	r6, ip, r0
     b50:	79000500 	stmdbvc	r0, {r8, sl}
     b54:	9f243800 	svcls	0x00243800
     b58:	00009c60 	andeq	r9, r0, r0, ror #24
     b5c:	00009c68 	andeq	r9, r0, r8, ror #24
     b60:	68590001 	ldmdavs	r9, {r0}^
     b64:	7800009c 	stmdavc	r0, {r2, r3, r4, r7}
     b68:	0500009c 	streq	r0, [r0, #-156]	; 0x9c
     b6c:	38007b00 	stmdacc	r0, {r8, r9, fp, ip, sp, lr}
     b70:	9c789f24 	ldclls	15, cr9, [r8], #-144	; 0xffffff70
     b74:	9c7c0000 	ldclls	0, cr0, [ip], #-0
     b78:	00050000 	andeq	r0, r5, r0
     b7c:	2438007a 	ldrtcs	r0, [r8], #-122	; 0x7a
     b80:	009c7c9f 	umullseq	r7, ip, pc, ip	; <UNPREDICTABLE>
     b84:	009c8000 	addseq	r8, ip, r0
     b88:	79000500 	stmdbvc	r0, {r8, sl}
     b8c:	9f243800 	svcls	0x00243800
     b90:	00009c80 	andeq	r9, r0, r0, lsl #25
     b94:	00009c8a 	andeq	r9, r0, sl, lsl #25
     b98:	8a590001 	bhi	1640ba4 <__bss_end__+0x162e860>
     b9c:	9a00009c 	bls	e14 <shift+0xe14>
     ba0:	0500009c 	streq	r0, [r0, #-156]	; 0x9c
     ba4:	38007b00 	stmdacc	r0, {r8, r9, fp, ip, sp, lr}
     ba8:	9c9a9f24 	ldcls	15, cr9, [sl], {36}	; 0x24
     bac:	9c9e0000 	ldcls	0, cr0, [lr], {0}
     bb0:	00050000 	andeq	r0, r5, r0
     bb4:	2438007a 	ldrtcs	r0, [r8], #-122	; 0x7a
     bb8:	009c9e9f 	umullseq	r9, ip, pc, lr	; <UNPREDICTABLE>
     bbc:	009ca200 	addseq	sl, ip, r0, lsl #4
     bc0:	79000500 	stmdbvc	r0, {r8, sl}
     bc4:	9f243800 	svcls	0x00243800
     bc8:	00009ca2 	andeq	r9, r0, r2, lsr #25
     bcc:	00009ca8 	andeq	r9, r0, r8, lsr #25
     bd0:	00580001 	subseq	r0, r8, r1
     bd4:	00000000 	andeq	r0, r0, r0
     bd8:	b0000000 	andlt	r0, r0, r0
     bdc:	c400009c 	strgt	r0, [r0], #-156	; 0x9c
     be0:	0100009c 	swpeq	r0, ip, [r0]	; <UNPREDICTABLE>
     be4:	9cc45100 	stflse	f5, [r4], {0}
     be8:	9ce00000 	stclls	0, cr0, [r0]
     bec:	00040000 	andeq	r0, r4, r0
     bf0:	9f7f8071 	svcls	0x007f8071
	...
     bfc:	00009ce0 	andeq	r9, r0, r0, ror #25
     c00:	00009cf3 	strdeq	r9, [r0], -r3
     c04:	f3500001 	vhadd.u16	d16, d0, d1
     c08:	fa00009c 	blx	e80 <shift+0xe80>
     c0c:	0100009c 	swpeq	r0, ip, [r0]	; <UNPREDICTABLE>
     c10:	00005400 	andeq	r5, r0, r0, lsl #8
     c14:	00000000 	andeq	r0, r0, r0
     c18:	87f00000 	ldrbhi	r0, [r0, r0]!
     c1c:	880e0000 	stmdahi	lr, {}	; <UNPREDICTABLE>
     c20:	00010000 	andeq	r0, r1, r0
     c24:	00880e50 	addeq	r0, r8, r0, asr lr
     c28:	00884400 	addeq	r4, r8, r0, lsl #8
     c2c:	75000600 	strvc	r0, [r0, #-1536]	; 0x600
     c30:	67808080 	strvs	r8, [r0, r0, lsl #1]
     c34:	0092e09f 	umullseq	lr, r2, pc, r0	; <UNPREDICTABLE>
     c38:	0092f000 	addseq	pc, r2, r0
     c3c:	75000600 	strvc	r0, [r0, #-1536]	; 0x600
     c40:	67808080 	strvs	r8, [r0, r0, lsl #1]
     c44:	0000009f 	muleq	r0, pc, r0	; <UNPREDICTABLE>
     c48:	00000000 	andeq	r0, r0, r0
     c4c:	00886800 	addeq	r6, r8, r0, lsl #16
     c50:	008c0c00 	addeq	r0, ip, r0, lsl #24
     c54:	91000400 	tstls	r0, r0, lsl #8
     c58:	0c7fb4a8 	cfldrdeq	mvd11, [pc], #-672	; 9c0 <shift+0x9c0>
     c5c:	1400008c 	strne	r0, [r0], #-140	; 0x8c
     c60:	0100008c 	smlabbeq	r0, ip, r0, r0
     c64:	8c145400 	cfldrshi	mvf5, [r4], {-0}
     c68:	8ebe0000 	cdphi	0, 11, cr0, cr14, cr0, {0}
     c6c:	00040000 	andeq	r0, r4, r0
     c70:	7fb4a891 	svcvc	0x00b4a891
     c74:	00008ebe 			; <UNDEFINED> instruction: 0x00008ebe
     c78:	00008f74 	andeq	r8, r0, r4, ror pc
     c7c:	74540001 	ldrbvc	r0, [r4], #-1
     c80:	8d00008f 	stchi	0, cr0, [r0, #-572]	; 0xfffffdc4
     c84:	0200008f 	andeq	r0, r0, #143	; 0x8f
     c88:	8d429000 	stclhi	0, cr9, [r2, #-0]
     c8c:	8e00008f 	cdphi	0, 0, cr0, cr0, cr15, {4}
     c90:	0300008f 	movweq	r0, #143	; 0x8f
     c94:	9f7f7400 	svcls	0x007f7400
     c98:	00008f8e 	andeq	r8, r0, lr, lsl #31
     c9c:	00008fa2 	andeq	r8, r0, r2, lsr #31
     ca0:	32540001 	subscc	r0, r4, #1
     ca4:	3c000090 	stccc	0, cr0, [r0], {144}	; 0x90
     ca8:	02000090 	andeq	r0, r0, #144	; 0x90
     cac:	3c9f3000 	ldccc	0, cr3, [pc], {0}
     cb0:	0a000090 	beq	ef8 <shift+0xef8>
     cb4:	04000092 	streq	r0, [r0], #-146	; 0x92
     cb8:	b4a89100 	strtlt	r9, [r8], #256	; 0x100
     cbc:	00921e7f 	addseq	r1, r2, pc, ror lr
     cc0:	0092aa00 	addseq	sl, r2, r0, lsl #20
     cc4:	91000400 	tstls	r0, r0, lsl #8
     cc8:	ca7fb4a8 	bgt	1fedf70 <__bss_end__+0x1fdbc2c>
     ccc:	e0000092 	mul	r0, r2, r0
     cd0:	04000092 	streq	r0, [r0], #-146	; 0x92
     cd4:	b4a89100 	strtlt	r9, [r8], #256	; 0x100
     cd8:	0000007f 	andeq	r0, r0, pc, ror r0
     cdc:	00000000 	andeq	r0, r0, r0
     ce0:	00886800 	addeq	r6, r8, r0, lsl #16
     ce4:	00888a00 	addeq	r8, r8, r0, lsl #20
     ce8:	30000200 	andcc	r0, r0, r0, lsl #4
     cec:	008ebe9f 	umulleq	fp, lr, pc, lr	; <UNPREDICTABLE>
     cf0:	008ec600 	addeq	ip, lr, r0, lsl #12
     cf4:	30000200 	andcc	r0, r0, r0, lsl #4
     cf8:	008ec69f 	umulleq	ip, lr, pc, r6	; <UNPREDICTABLE>
     cfc:	008eca00 	addeq	ip, lr, r0, lsl #20
     d00:	51000100 	mrspl	r0, (UNDEF: 16)
     d04:	00008eca 	andeq	r8, r0, sl, asr #29
     d08:	00008f1c 	andeq	r8, r0, ip, lsl pc
     d0c:	78710003 	ldmdavc	r1!, {r0, r1}^
     d10:	008f4c9f 	umulleq	r4, pc, pc, ip	; <UNPREDICTABLE>
     d14:	008f5400 	addeq	r5, pc, r0, lsl #8
     d18:	51000100 	mrspl	r0, (UNDEF: 16)
     d1c:	0000903c 	andeq	r9, r0, ip, lsr r0
     d20:	00009056 	andeq	r9, r0, r6, asr r0
     d24:	9f300002 	svcls	0x00300002
     d28:	00009056 	andeq	r9, r0, r6, asr r0
     d2c:	00009060 	andeq	r9, r0, r0, rrx
     d30:	60550001 	subsvs	r0, r5, r1
     d34:	be000090 	mcrlt	0, 0, r0, cr0, cr0, {4}
     d38:	03000090 	movweq	r0, #144	; 0x90
     d3c:	9f787200 	svcls	0x00787200
     d40:	000091a4 	andeq	r9, r0, r4, lsr #3
     d44:	000091ae 	andeq	r9, r0, lr, lsr #3
     d48:	ae520001 	cdpge	0, 5, cr0, cr2, cr1, {0}
     d4c:	b8000091 	stmdalt	r0, {r0, r4, r7}
     d50:	01000091 	swpeq	r0, r1, [r0]	; <UNPREDICTABLE>
     d54:	00005500 	andeq	r5, r0, r0, lsl #10
     d58:	00000000 	andeq	r0, r0, r0
     d5c:	87a80000 	strhi	r0, [r8, r0]!
     d60:	87aa0000 	strhi	r0, [sl, r0]!
     d64:	00010000 	andeq	r0, r1, r0
     d68:	0087aa50 	addeq	sl, r7, r0, asr sl
     d6c:	0092f000 	addseq	pc, r2, r0
     d70:	91000400 	tstls	r0, r0, lsl #8
     d74:	f07fb4ac 			; <UNDEFINED> instruction: 0xf07fb4ac
     d78:	f6000092 			; <UNDEFINED> instruction: 0xf6000092
     d7c:	01000092 	swpeq	r0, r2, [r0]	; <UNPREDICTABLE>
     d80:	92f65400 	rscsls	r5, r6, #0, 8
     d84:	93060000 	movwls	r0, #24576	; 0x6000
     d88:	00040000 	andeq	r0, r4, r0
     d8c:	7fb4ac91 	svcvc	0x00b4ac91
	...
     d98:	0000882e 	andeq	r8, r0, lr, lsr #16
     d9c:	000092aa 	andeq	r9, r0, sl, lsr #5
     da0:	3c080003 	stccc	0, cr0, [r8], {3}
     da4:	0092ca9f 	umullseq	ip, r2, pc, sl	; <UNPREDICTABLE>
     da8:	0092e000 	addseq	lr, r2, r0
     dac:	08000300 	stmdaeq	r0, {r8, r9}
     db0:	00009f3c 	andeq	r9, r0, ip, lsr pc
     db4:	00000000 	andeq	r0, r0, r0
     db8:	90100000 	andsls	r0, r0, r0
     dbc:	903c0000 	eorsls	r0, ip, r0
     dc0:	00020000 	andeq	r0, r2, r0
     dc4:	903c9f30 	eorsls	r9, ip, r0, lsr pc
     dc8:	92160000 	andsls	r0, r6, #0
     dcc:	00040000 	andeq	r0, r4, r0
     dd0:	7fb4a091 	svcvc	0x00b4a091
     dd4:	0000921e 	andeq	r9, r0, lr, lsl r2
     dd8:	000092aa 	andeq	r9, r0, sl, lsr #5
     ddc:	a0910004 	addsge	r0, r1, r4
     de0:	92ca7fb4 	sbcls	r7, sl, #180, 30	; 0x2d0
     de4:	92e00000 	rscls	r0, r0, #0
     de8:	00040000 	andeq	r0, r4, r0
     dec:	7fb4a091 	svcvc	0x00b4a091
	...
     df8:	0000888a 	andeq	r8, r0, sl, lsl #17
     dfc:	000092aa 	andeq	r9, r0, sl, lsr #5
     e00:	80080003 	andhi	r0, r8, r3
     e04:	0092ca9f 	umullseq	ip, r2, pc, sl	; <UNPREDICTABLE>
     e08:	0092e000 	addseq	lr, r2, r0
     e0c:	08000300 	stmdaeq	r0, {r8, r9}
     e10:	00009f80 	andeq	r9, r0, r0, lsl #31
     e14:	00000000 	andeq	r0, r0, r0
     e18:	888a0000 	stmhi	sl, {}	; <UNPREDICTABLE>
     e1c:	92aa0000 	adcls	r0, sl, #0
     e20:	00020000 	andeq	r0, r2, r0
     e24:	92ca9f40 	sbcls	r9, sl, #64, 30	; 0x100
     e28:	92e00000 	rscls	r0, r0, #0
     e2c:	00020000 	andeq	r0, r2, r0
     e30:	00009f40 	andeq	r9, r0, r0, asr #30
     e34:	00000000 	andeq	r0, r0, r0
     e38:	888a0000 	stmhi	sl, {}	; <UNPREDICTABLE>
     e3c:	92aa0000 	adcls	r0, sl, #0
     e40:	00030000 	andeq	r0, r3, r0
     e44:	ca9f3c08 	bgt	fe7cfe6c <__bss_end__+0xfe7bdb28>
     e48:	e0000092 	mul	r0, r2, r0
     e4c:	03000092 	movweq	r0, #146	; 0x92
     e50:	9f3c0800 	svcls	0x003c0800
	...
     e5c:	0000888a 	andeq	r8, r0, sl, lsl #17
     e60:	0000903c 	andeq	r9, r0, ip, lsr r0
     e64:	3c5b0001 	mrrccc	0, 0, r0, fp, cr1
     e68:	aa000090 	bge	10b0 <shift+0x10b0>
     e6c:	05000092 	streq	r0, [r0, #-146]	; 0x92
     e70:	b5989100 	ldrlt	r9, [r8, #256]	; 0x100
     e74:	92ca9f7f 	sbcls	r9, sl, #508	; 0x1fc
     e78:	92e00000 	rscls	r0, r0, #0
     e7c:	00050000 	andeq	r0, r5, r0
     e80:	7fb59891 	svcvc	0x00b59891
     e84:	0000009f 	muleq	r0, pc, r0	; <UNPREDICTABLE>
     e88:	00000000 	andeq	r0, r0, r0
     e8c:	00888a00 	addeq	r8, r8, r0, lsl #20
     e90:	00894e00 	addeq	r4, r9, r0, lsl #28
     e94:	91000500 	tstls	r0, r0, lsl #10
     e98:	9f7fb798 	svcls	0x007fb798
     e9c:	0000894e 	andeq	r8, r0, lr, asr #18
     ea0:	00008966 	andeq	r8, r0, r6, ror #18
     ea4:	66520001 	ldrbvs	r0, [r2], -r1
     ea8:	56000089 	strpl	r0, [r0], -r9, lsl #1
     eac:	0100008a 	smlabbeq	r0, sl, r0, r0
     eb0:	8a565100 	bhi	15952b8 <__bss_end__+0x1582f74>
     eb4:	8ada0000 	bhi	ff680ebc <__bss_end__+0xff66eb78>
     eb8:	00050000 	andeq	r0, r5, r0
     ebc:	7fb79891 	svcvc	0x00b79891
     ec0:	008ada9f 	umulleq	sp, sl, pc, sl	; <UNPREDICTABLE>
     ec4:	008b0e00 	addeq	r0, fp, r0, lsl #28
     ec8:	54000100 	strpl	r0, [r0], #-256	; 0x100
     ecc:	00008b0e 	andeq	r8, r0, lr, lsl #22
     ed0:	00008ba4 	andeq	r8, r0, r4, lsr #23
     ed4:	98910005 	ldmls	r1, {r0, r2}
     ed8:	a49f7fb7 	ldrge	r7, [pc], #4023	; ee0 <shift+0xee0>
     edc:	1800008b 	stmdane	r0, {r0, r1, r3, r7}
     ee0:	0100008c 	smlabbeq	r0, ip, r0, r0
     ee4:	8c185a00 	ldchi	10, cr5, [r8], {-0}
     ee8:	92aa0000 	adcls	r0, sl, #0
     eec:	00050000 	andeq	r0, r5, r0
     ef0:	7fb79891 	svcvc	0x00b79891
     ef4:	0092ca9f 	umullseq	ip, r2, pc, sl	; <UNPREDICTABLE>
     ef8:	0092e000 	addseq	lr, r2, r0
     efc:	91000500 	tstls	r0, r0, lsl #10
     f00:	9f7fb798 	svcls	0x007fb798
	...
     f0c:	00008948 	andeq	r8, r0, r8, asr #18
     f10:	000089b2 			; <UNDEFINED> instruction: 0x000089b2
     f14:	9f300002 	svcls	0x00300002
     f18:	000089b2 			; <UNDEFINED> instruction: 0x000089b2
     f1c:	000089ba 			; <UNDEFINED> instruction: 0x000089ba
     f20:	9f310002 	svcls	0x00310002
     f24:	000089ba 			; <UNDEFINED> instruction: 0x000089ba
     f28:	000089ca 	andeq	r8, r0, sl, asr #19
     f2c:	9f320002 	svcls	0x00320002
     f30:	000089ca 	andeq	r8, r0, sl, asr #19
     f34:	000089f6 	strdeq	r8, [r0], -r6
     f38:	9f330002 	svcls	0x00330002
     f3c:	000089f6 	strdeq	r8, [r0], -r6
     f40:	00008a06 	andeq	r8, r0, r6, lsl #20
     f44:	9f380002 	svcls	0x00380002
     f48:	00008a06 	andeq	r8, r0, r6, lsl #20
     f4c:	00008a0a 	andeq	r8, r0, sl, lsl #20
     f50:	9f390002 	svcls	0x00390002
     f54:	00008a0a 	andeq	r8, r0, sl, lsl #20
     f58:	00008a22 	andeq	r8, r0, r2, lsr #20
     f5c:	9f3b0002 	svcls	0x003b0002
     f60:	00008a22 	andeq	r8, r0, r2, lsr #20
     f64:	00008a4a 	andeq	r8, r0, sl, asr #20
     f68:	9f3c0002 	svcls	0x003c0002
     f6c:	00008a4a 	andeq	r8, r0, sl, asr #20
     f70:	00008a4e 	andeq	r8, r0, lr, asr #20
     f74:	9f3d0002 	svcls	0x003d0002
     f78:	00008a4e 	andeq	r8, r0, lr, asr #20
     f7c:	00008a52 	andeq	r8, r0, r2, asr sl
     f80:	9f3e0002 	svcls	0x003e0002
     f84:	00008a52 	andeq	r8, r0, r2, asr sl
     f88:	00008a56 	andeq	r8, r0, r6, asr sl
     f8c:	9f3f0002 	svcls	0x003f0002
     f90:	00008a56 	andeq	r8, r0, r6, asr sl
     f94:	000092aa 	andeq	r9, r0, sl, lsr #5
     f98:	9f400002 	svcls	0x00400002
     f9c:	000092ca 	andeq	r9, r0, sl, asr #5
     fa0:	000092e0 	andeq	r9, r0, r0, ror #5
     fa4:	9f400002 	svcls	0x00400002
	...
     fb0:	0000888a 	andeq	r8, r0, sl, lsl #17
     fb4:	0000888e 	andeq	r8, r0, lr, lsl #17
     fb8:	9f300002 	svcls	0x00300002
     fbc:	0000888e 	andeq	r8, r0, lr, lsl #17
     fc0:	000088b4 			; <UNDEFINED> instruction: 0x000088b4
     fc4:	b4560001 	ldrblt	r0, [r6], #-1
     fc8:	d4000088 	strle	r0, [r0], #-136	; 0x88
     fcc:	03000088 	movweq	r0, #136	; 0x88
     fd0:	9f017600 	svcls	0x00017600
     fd4:	000088d4 	ldrdeq	r8, [r0], -r4
     fd8:	000088f4 	strdeq	r8, [r0], -r4
     fdc:	02760003 	rsbseq	r0, r6, #3
     fe0:	0088f49f 	umulleq	pc, r8, pc, r4	; <UNPREDICTABLE>
     fe4:	0088fe00 	addeq	pc, r8, r0, lsl #28
     fe8:	76000300 	strvc	r0, [r0], -r0, lsl #6
     fec:	88fe9f03 	ldmhi	lr!, {r0, r1, r8, r9, sl, fp, ip, pc}^
     ff0:	89240000 	stmdbhi	r4!, {}	; <UNPREDICTABLE>
     ff4:	00010000 	andeq	r0, r1, r0
     ff8:	00000053 	andeq	r0, r0, r3, asr r0
     ffc:	00000000 	andeq	r0, r0, r0
    1000:	008b2600 	addeq	r2, fp, r0, lsl #12
    1004:	008b4600 	addeq	r4, fp, r0, lsl #12
    1008:	54000100 	strpl	r0, [r0], #-256	; 0x100
    100c:	00008b46 	andeq	r8, r0, r6, asr #22
    1010:	00008b60 	andeq	r8, r0, r0, ror #22
    1014:	01740003 	cmneq	r4, r3
    1018:	008b609f 	umulleq	r6, fp, pc, r0	; <UNPREDICTABLE>
    101c:	008b7800 	addeq	r7, fp, r0, lsl #16
    1020:	74000300 	strvc	r0, [r0], #-768	; 0x300
    1024:	8b789f02 	blhi	1e28c34 <__bss_end__+0x1e168f0>
    1028:	8b8a0000 	blhi	fe281030 <__bss_end__+0xfe26ecec>
    102c:	00030000 	andeq	r0, r3, r0
    1030:	8a9f0374 	bhi	fe7c1e08 <__bss_end__+0xfe7afac4>
    1034:	c800008b 	stmdagt	r0, {r0, r1, r3, r7}
    1038:	0100008b 	smlabbeq	r0, fp, r0, r0
    103c:	8bc85300 	blhi	ff215c44 <__bss_end__+0xff203900>
    1040:	8be40000 	blhi	ff901048 <__bss_end__+0xff8eed04>
    1044:	00090000 	andeq	r0, r9, r0
    1048:	00910077 	addseq	r0, r1, r7, ror r0
    104c:	49e8231c 	stmibmi	r8!, {r2, r3, r4, r8, r9, sp}^
    1050:	008be49f 	umulleq	lr, fp, pc, r4	; <UNPREDICTABLE>
    1054:	008c2e00 	addeq	r2, ip, r0, lsl #28
    1058:	77000900 	strvc	r0, [r0, -r0, lsl #18]
    105c:	1c009100 	stfned	f1, [r0], {-0}
    1060:	9f49e923 	svcls	0x0049e923
	...
    106c:	00008b1c 	andeq	r8, r0, ip, lsl fp
    1070:	000092aa 	andeq	r9, r0, sl, lsr #5
    1074:	58900008 	ldmpl	r0, {r3}
    1078:	59900493 	ldmibpl	r0, {r0, r1, r4, r7, sl}
    107c:	92ca0493 	sbcls	r0, sl, #-1828716544	; 0x93000000
    1080:	92e00000 	rscls	r0, r0, #0
    1084:	00080000 	andeq	r0, r8, r0
    1088:	04935890 	ldreq	r5, [r3], #2192	; 0x890
    108c:	04935990 	ldreq	r5, [r3], #2448	; 0x990
	...
    1098:	00008ac8 	andeq	r8, r0, r8, asr #21
    109c:	00008ae0 	andeq	r8, r0, r0, ror #21
    10a0:	00510001 	subseq	r0, r1, r1
    10a4:	00000000 	andeq	r0, r0, r0
    10a8:	68000000 	stmdavs	r0, {}	; <UNPREDICTABLE>
    10ac:	aa00008c 	bge	12e4 <shift+0x12e4>
    10b0:	04000092 	streq	r0, [r0], #-146	; 0x92
    10b4:	04000a00 	streq	r0, [r0], #-2560	; 0xa00
    10b8:	0092ca9f 	umullseq	ip, r2, pc, sl	; <UNPREDICTABLE>
    10bc:	0092e000 	addseq	lr, r2, r0
    10c0:	0a000400 	beq	20c8 <shift+0x20c8>
    10c4:	009f0400 	addseq	r0, pc, r0, lsl #8
    10c8:	00000000 	andeq	r0, r0, r0
    10cc:	68000000 	stmdavs	r0, {}	; <UNPREDICTABLE>
    10d0:	aa00008c 	bge	1308 <shift+0x1308>
    10d4:	03000092 	movweq	r0, #146	; 0x92
    10d8:	9f800800 	svcls	0x00800800
    10dc:	000092ca 	andeq	r9, r0, sl, asr #5
    10e0:	000092e0 	andeq	r9, r0, r0, ror #5
    10e4:	80080003 	andhi	r0, r8, r3
    10e8:	0000009f 	muleq	r0, pc, r0	; <UNPREDICTABLE>
    10ec:	00000000 	andeq	r0, r0, r0
    10f0:	008c6800 	addeq	r6, ip, r0, lsl #16
    10f4:	0092aa00 	addseq	sl, r2, r0, lsl #20
    10f8:	40000200 	andmi	r0, r0, r0, lsl #4
    10fc:	0092ca9f 	umullseq	ip, r2, pc, sl	; <UNPREDICTABLE>
    1100:	0092e000 	addseq	lr, r2, r0
    1104:	40000200 	andmi	r0, r0, r0, lsl #4
    1108:	0000009f 	muleq	r0, pc, r0	; <UNPREDICTABLE>
    110c:	00000000 	andeq	r0, r0, r0
    1110:	008c6800 	addeq	r6, ip, r0, lsl #16
    1114:	00902c00 	addseq	r2, r0, r0, lsl #24
    1118:	91000a00 	tstls	r0, r0, lsl #20
    111c:	067fb49c 			; <UNDEFINED> instruction: 0x067fb49c
    1120:	1c0ffc0a 	stcne	12, cr15, [pc], {10}
    1124:	00902c9f 	umullseq	r2, r0, pc, ip	; <UNPREDICTABLE>
    1128:	00903c00 	addseq	r3, r0, r0, lsl #24
    112c:	58000100 	stmdapl	r0, {r8}
    1130:	0000903c 	andeq	r9, r0, ip, lsr r0
    1134:	000092aa 	andeq	r9, r0, sl, lsr #5
    1138:	98910005 	ldmls	r1, {r0, r2}
    113c:	ca9f7fbf 	bgt	fe7e1040 <__bss_end__+0xfe7cecfc>
    1140:	e0000092 	mul	r0, r2, r0
    1144:	05000092 	streq	r0, [r0, #-146]	; 0x92
    1148:	bf989100 	svclt	0x00989100
    114c:	00009f7f 	andeq	r9, r0, pc, ror pc
    1150:	00000000 	andeq	r0, r0, r0
    1154:	8c680000 	stclhi	0, cr0, [r8], #-0
    1158:	8fd40000 	svchi	0x00d40000
    115c:	00050000 	andeq	r0, r5, r0
    1160:	7fb4b891 	svcvc	0x00b4b891
    1164:	008fd49f 	umulleq	sp, pc, pc, r4	; <UNPREDICTABLE>
    1168:	008fdf00 	addeq	sp, pc, r0, lsl #30
    116c:	53000100 	movwpl	r0, #256	; 0x100
    1170:	00008fdf 	ldrdeq	r8, [r0], -pc	; <UNPREDICTABLE>
    1174:	000092aa 	andeq	r9, r0, sl, lsr #5
    1178:	b8910005 	ldmlt	r1, {r0, r2}
    117c:	ca9f7fb4 	bgt	fe7e1054 <__bss_end__+0xfe7ced10>
    1180:	e0000092 	mul	r0, r2, r0
    1184:	05000092 	streq	r0, [r0, #-146]	; 0x92
    1188:	b4b89100 	ldrtlt	r9, [r8], #256	; 0x100
    118c:	00009f7f 	andeq	r9, r0, pc, ror pc
    1190:	00000000 	andeq	r0, r0, r0
    1194:	8c680000 	stclhi	0, cr0, [r8], #-0
    1198:	8e6c0000 	cdphi	0, 6, cr0, cr12, cr0, {0}
    119c:	00010000 	andeq	r0, r1, r0
    11a0:	008e6c52 	addeq	r6, lr, r2, asr ip
    11a4:	008e7900 	addeq	r7, lr, r0, lsl #18
    11a8:	03000500 	movweq	r0, #1280	; 0x500
    11ac:	00012340 	andeq	r2, r1, r0, asr #6
	...
    11b8:	00008c68 	andeq	r8, r0, r8, ror #24
    11bc:	00008c70 	andeq	r8, r0, r0, ror ip
    11c0:	9f300002 	svcls	0x00300002
	...
    11cc:	00008c70 	andeq	r8, r0, r0, ror ip
    11d0:	00008c7c 	andeq	r8, r0, ip, ror ip
    11d4:	9f300002 	svcls	0x00300002
    11d8:	00008c7c 	andeq	r8, r0, ip, ror ip
    11dc:	00008c7e 	andeq	r8, r0, lr, ror ip
    11e0:	44500001 	ldrbmi	r0, [r0], #-1
    11e4:	7000008e 	andvc	r0, r0, lr, lsl #1
    11e8:	0100008e 	smlabbeq	r0, lr, r0, r0
    11ec:	00005000 	andeq	r5, r0, r0
    11f0:	00000000 	andeq	r0, r0, r0
    11f4:	8c700000 	ldclhi	0, cr0, [r0], #-0
    11f8:	8c7c0000 	ldclhi	0, cr0, [ip], #-0
    11fc:	00020000 	andeq	r0, r2, r0
    1200:	8c7c9f30 	ldclhi	15, cr9, [ip], #-192	; 0xffffff40
    1204:	8c7e0000 	ldclhi	0, cr0, [lr], #-0
    1208:	00010000 	andeq	r0, r1, r0
    120c:	008e4454 	addeq	r4, lr, r4, asr r4
    1210:	008e6400 	addeq	r6, lr, r0, lsl #8
    1214:	54000100 	strpl	r0, [r0], #-256	; 0x100
	...
    1220:	00008c70 	andeq	r8, r0, r0, ror ip
    1224:	00008c7c 	andeq	r8, r0, ip, ror ip
    1228:	9f300002 	svcls	0x00300002
    122c:	00008c7c 	andeq	r8, r0, ip, ror ip
    1230:	00008c7e 	andeq	r8, r0, lr, ror ip
    1234:	3e550001 	cdpcc	0, 5, cr0, cr5, cr1, {0}
    1238:	6e00008e 	cdpvs	0, 0, cr0, cr0, cr14, {4}
    123c:	0100008e 	smlabbeq	r0, lr, r0, r0
    1240:	8e6e5500 	cdphi	5, 6, cr5, cr14, cr0, {0}
    1244:	8e790000 	cdphi	0, 7, cr0, cr9, cr0, {0}
    1248:	00020000 	andeq	r0, r2, r0
    124c:	0000007e 	andeq	r0, r0, lr, ror r0
    1250:	00000000 	andeq	r0, r0, r0
    1254:	8ebe0000 	cdphi	0, 11, cr0, cr14, cr0, {0}
    1258:	8ec60000 	cdphi	0, 12, cr0, cr6, cr0, {0}
    125c:	00020000 	andeq	r0, r2, r0
    1260:	8ec69f30 	mcrhi	15, 6, r9, cr6, cr0, {1}
    1264:	8f1c0000 	svchi	0x001c0000
    1268:	00010000 	andeq	r0, r1, r0
    126c:	008f1c52 	addeq	r1, pc, r2, asr ip	; <UNPREDICTABLE>
    1270:	008f4a00 	addeq	r4, pc, r0, lsl #20
    1274:	73003b00 	movwvc	r3, #2816	; 0xb00
    1278:	3c080600 	stccc	6, cr0, [r8], {-0}
    127c:	0072191c 	rsbseq	r1, r2, ip, lsl r9
    1280:	06047322 	streq	r7, [r4], -r2, lsr #6
    1284:	191c3c08 	ldmdbne	ip, {r3, sl, fp, ip, sp}
    1288:	06087322 	streq	r7, [r8], -r2, lsr #6
    128c:	191c3c08 	ldmdbne	ip, {r3, sl, fp, ip, sp}
    1290:	060c7322 	streq	r7, [ip], -r2, lsr #6
    1294:	191c3c08 	ldmdbne	ip, {r3, sl, fp, ip, sp}
    1298:	06107322 	ldreq	r7, [r0], -r2, lsr #6
    129c:	191c3c08 	ldmdbne	ip, {r3, sl, fp, ip, sp}
    12a0:	06147322 	ldreq	r7, [r4], -r2, lsr #6
    12a4:	191c3c08 	ldmdbne	ip, {r3, sl, fp, ip, sp}
    12a8:	06187322 	ldreq	r7, [r8], -r2, lsr #6
    12ac:	191c3c08 	ldmdbne	ip, {r3, sl, fp, ip, sp}
    12b0:	8f4a9f22 	svchi	0x004a9f22
    12b4:	8f4c0000 	svchi	0x004c0000
    12b8:	003b0000 	eorseq	r0, fp, r0
    12bc:	08066073 	stmdaeq	r6, {r0, r1, r4, r5, r6, sp, lr}
    12c0:	72191c3c 	andsvc	r1, r9, #60, 24	; 0x3c00
    12c4:	64732200 	ldrbtvs	r2, [r3], #-512	; 0x200
    12c8:	1c3c0806 	ldcne	8, cr0, [ip], #-24	; 0xffffffe8
    12cc:	68732219 	ldmdavs	r3!, {r0, r3, r4, r9, sp}^
    12d0:	1c3c0806 	ldcne	8, cr0, [ip], #-24	; 0xffffffe8
    12d4:	6c732219 	lfmvs	f2, 2, [r3], #-100	; 0xffffff9c
    12d8:	1c3c0806 	ldcne	8, cr0, [ip], #-24	; 0xffffffe8
    12dc:	70732219 	rsbsvc	r2, r3, r9, lsl r2
    12e0:	1c3c0806 	ldcne	8, cr0, [ip], #-24	; 0xffffffe8
    12e4:	74732219 	ldrbtvc	r2, [r3], #-537	; 0x219
    12e8:	1c3c0806 	ldcne	8, cr0, [ip], #-24	; 0xffffffe8
    12ec:	78732219 	ldmdavc	r3!, {r0, r3, r4, r9, sp}^
    12f0:	1c3c0806 	ldcne	8, cr0, [ip], #-24	; 0xffffffe8
    12f4:	4c9f2219 	lfmmi	f2, 4, [pc], {25}
    12f8:	8a00008f 	bhi	153c <shift+0x153c>
    12fc:	0100008f 	smlabbeq	r0, pc, r0, r0	; <UNPREDICTABLE>
    1300:	8f8a5200 	svchi	0x008a5200
    1304:	8f8d0000 	svchi	0x008d0000
    1308:	00020000 	andeq	r0, r2, r0
    130c:	0000007d 	andeq	r0, r0, sp, ror r0
    1310:	00000000 	andeq	r0, r0, r0
    1314:	903c0000 	eorsls	r0, ip, r0
    1318:	90560000 	subsls	r0, r6, r0
    131c:	00020000 	andeq	r0, r2, r0
    1320:	90569f30 	subsls	r9, r6, r0, lsr pc
    1324:	90b60000 	adcsls	r0, r6, r0
    1328:	00010000 	andeq	r0, r1, r0
    132c:	0090b657 	addseq	fp, r0, r7, asr r6
    1330:	0090be00 	addseq	fp, r0, r0, lsl #28
    1334:	78000e00 	stmdavc	r0, {r9, sl, fp}
    1338:	22007400 	andcs	r7, r0, #0, 8
    133c:	1c3c0806 	ldcne	8, cr0, [ip], #-24	; 0xffffffe8
    1340:	22007719 	andcs	r7, r0, #6553600	; 0x640000
    1344:	0091989f 	umullseq	r9, r1, pc, r8	; <UNPREDICTABLE>
    1348:	0091bc00 	addseq	fp, r1, r0, lsl #24
    134c:	57000100 	strpl	r0, [r0, -r0, lsl #2]
    1350:	000091bc 			; <UNDEFINED> instruction: 0x000091bc
    1354:	000091e0 	andeq	r9, r0, r0, ror #3
    1358:	00520001 	subseq	r0, r2, r1
    135c:	00000000 	andeq	r0, r0, r0
    1360:	3c000000 	stccc	0, cr0, [r0], {-0}
    1364:	56000090 			; <UNDEFINED> instruction: 0x56000090
    1368:	02000090 	andeq	r0, r0, #144	; 0x90
    136c:	569f3000 	ldrpl	r3, [pc], r0
    1370:	be000090 	mcrlt	0, 0, r0, cr0, cr0, {4}
    1374:	01000090 	swpeq	r0, r0, [r0]	; <UNPREDICTABLE>
    1378:	91a45300 			; <UNDEFINED> instruction: 0x91a45300
    137c:	921d0000 	andsls	r0, sp, #0
    1380:	00010000 	andeq	r0, r1, r0
    1384:	00000053 	andeq	r0, r0, r3, asr r0
    1388:	00000000 	andeq	r0, r0, r0
    138c:	00925000 	addseq	r5, r2, r0
    1390:	00925800 	addseq	r5, r2, r0, lsl #16
    1394:	91000500 	tstls	r0, r0, lsl #10
    1398:	9f7fb4c8 	svcls	0x007fb4c8
    139c:	00009258 	andeq	r9, r0, r8, asr r2
    13a0:	00009261 	andeq	r9, r0, r1, ror #4
    13a4:	61500001 	cmpvs	r0, r1
    13a8:	aa000092 	bge	15f8 <shift+0x15f8>
    13ac:	05000092 	streq	r0, [r0, #-146]	; 0x92
    13b0:	b4c89100 	strblt	r9, [r8], #256	; 0x100
    13b4:	92ca9f7f 	sbcls	r9, sl, #508	; 0x1fc
    13b8:	92e00000 	rscls	r0, r0, #0
    13bc:	00050000 	andeq	r0, r5, r0
    13c0:	7fb4c891 	svcvc	0x00b4c891
    13c4:	0000009f 	muleq	r0, pc, r0	; <UNPREDICTABLE>
    13c8:	00000000 	andeq	r0, r0, r0
    13cc:	00927200 	addseq	r7, r2, r0, lsl #4
    13d0:	00927a00 	addseq	r7, r2, r0, lsl #20
    13d4:	91000500 	tstls	r0, r0, lsl #10
    13d8:	9f7fb4f0 	svcls	0x007fb4f0
    13dc:	0000927a 	andeq	r9, r0, sl, ror r2
    13e0:	00009283 	andeq	r9, r0, r3, lsl #5
    13e4:	83500001 	cmphi	r0, #1
    13e8:	aa000092 	bge	1638 <shift+0x1638>
    13ec:	05000092 	streq	r0, [r0, #-146]	; 0x92
    13f0:	b4f09100 	ldrbtlt	r9, [r0], #256	; 0x100
    13f4:	92ca9f7f 	sbcls	r9, sl, #508	; 0x1fc
    13f8:	92e00000 	rscls	r0, r0, #0
    13fc:	00050000 	andeq	r0, r5, r0
    1400:	7fb4f091 	svcvc	0x00b4f091
    1404:	0000009f 	muleq	r0, pc, r0	; <UNPREDICTABLE>
    1408:	00000000 	andeq	r0, r0, r0
	...

Disassembly of section .debug_ranges:

00000000 <.debug_ranges>:
   0:	00009634 	andeq	r9, r0, r4, lsr r6
   4:	00009636 	andeq	r9, r0, r6, lsr r6
   8:	00009644 	andeq	r9, r0, r4, asr #12
   c:	0000972e 	andeq	r9, r0, lr, lsr #14
  10:	0000980e 	andeq	r9, r0, lr, lsl #16
  14:	00009812 	andeq	r9, r0, r2, lsl r8
	...
  20:	00009918 	andeq	r9, r0, r8, lsl r9
  24:	0000991a 	andeq	r9, r0, sl, lsl r9
  28:	00009926 	andeq	r9, r0, r6, lsr #18
  2c:	000099da 	ldrdeq	r9, [r0], -sl
  30:	00009acc 	andeq	r9, r0, ip, asr #21
  34:	00009ad0 	ldrdeq	r9, [r0], -r0
	...
  40:	00009c1a 	andeq	r9, r0, sl, lsl ip
  44:	00009c1c 	andeq	r9, r0, ip, lsl ip
  48:	00009c36 	andeq	r9, r0, r6, lsr ip
  4c:	00009c3c 	andeq	r9, r0, ip, lsr ip
  50:	00009c3e 	andeq	r9, r0, lr, lsr ip
  54:	00009c40 	andeq	r9, r0, r0, asr #24
  58:	00009c44 	andeq	r9, r0, r4, asr #24
  5c:	00009c48 	andeq	r9, r0, r8, asr #24
  60:	00009cb0 			; <UNDEFINED> instruction: 0x00009cb0
  64:	00009cba 			; <UNDEFINED> instruction: 0x00009cba
	...
  70:	00009c2e 	andeq	r9, r0, lr, lsr #24
  74:	00009c32 	andeq	r9, r0, r2, lsr ip
  78:	00009cac 	andeq	r9, r0, ip, lsr #25
  7c:	00009cb0 			; <UNDEFINED> instruction: 0x00009cb0
	...
  88:	00009cba 			; <UNDEFINED> instruction: 0x00009cba
  8c:	00009cc4 	andeq	r9, r0, r4, asr #25
  90:	00009cc8 	andeq	r9, r0, r8, asr #25
  94:	00009cd0 	ldrdeq	r9, [r0], -r0
	...
  a0:	0000882e 	andeq	r8, r0, lr, lsr #16
  a4:	00008832 	andeq	r8, r0, r2, lsr r8
  a8:	00008850 	andeq	r8, r0, r0, asr r8
  ac:	00008854 	andeq	r8, r0, r4, asr r8
  b0:	0000888c 	andeq	r8, r0, ip, lsl #17
  b4:	00008a56 	andeq	r8, r0, r6, asr sl
	...
  c0:	0000882e 	andeq	r8, r0, lr, lsr #16
  c4:	00008832 	andeq	r8, r0, r2, lsr r8
  c8:	00008850 	andeq	r8, r0, r0, asr r8
  cc:	00008854 	andeq	r8, r0, r4, asr r8
  d0:	0000888c 	andeq	r8, r0, ip, lsl #17
  d4:	00008948 	andeq	r8, r0, r8, asr #18
	...
  e0:	00008836 	andeq	r8, r0, r6, lsr r8
  e4:	0000883a 	andeq	r8, r0, sl, lsr r8
  e8:	0000883e 	andeq	r8, r0, lr, lsr r8
  ec:	00008844 	andeq	r8, r0, r4, asr #16
  f0:	00008a56 	andeq	r8, r0, r6, asr sl
  f4:	00008be6 	andeq	r8, r0, r6, ror #23
	...
 100:	00008eb2 			; <UNDEFINED> instruction: 0x00008eb2
 104:	00008eb6 			; <UNDEFINED> instruction: 0x00008eb6
 108:	00008ebe 			; <UNDEFINED> instruction: 0x00008ebe
 10c:	00008f72 	andeq	r8, r0, r2, ror pc
 110:	00008f74 	andeq	r8, r0, r4, ror pc
 114:	00008f8e 	andeq	r8, r0, lr, lsl #31
	...
 120:	00008f9a 	muleq	r0, sl, pc	; <UNPREDICTABLE>
 124:	00008f9e 	muleq	r0, lr, pc	; <UNPREDICTABLE>
 128:	00008fa2 	andeq	r8, r0, r2, lsr #31
 12c:	00008fc0 	andeq	r8, r0, r0, asr #31
	...
 138:	00009036 	andeq	r9, r0, r6, lsr r0
 13c:	000091fe 	strdeq	r9, [r0], -lr
 140:	00009202 	andeq	r9, r0, r2, lsl #4
 144:	00009206 	andeq	r9, r0, r6, lsl #4
 148:	0000920a 	andeq	r9, r0, sl, lsl #4
 14c:	0000921e 	andeq	r9, r0, lr, lsl r2
	...
 158:	000093e8 	andeq	r9, r0, r8, ror #7
 15c:	00009cfa 	strdeq	r9, [r0], -sl
 160:	00008748 	andeq	r8, r0, r8, asr #14
 164:	00008782 	andeq	r8, r0, r2, lsl #15
 168:	00008738 	andeq	r8, r0, r8, lsr r7
 16c:	00008746 	andeq	r8, r0, r6, asr #14
 170:	00008784 	andeq	r8, r0, r4, lsl #15
 174:	00009306 	andeq	r9, r0, r6, lsl #6
	...
